Archive member included to satisfy reference by file (symbol)

c:/vsarm/armcc/10 2021.10/bin/../lib/gcc/arm-none-eabi/10.3.1/../../../../arm-none-eabi/lib/thumb/v7-m/nofp\libc_nano.a(lib_a-exit.o)
                              c:/vsarm/armcc/10 2021.10/bin/../lib/gcc/arm-none-eabi/10.3.1/../../../../arm-none-eabi/lib/thumb/v7-m/nofp/crt0.o (exit)
c:/vsarm/armcc/10 2021.10/bin/../lib/gcc/arm-none-eabi/10.3.1/../../../../arm-none-eabi/lib/thumb/v7-m/nofp\libc_nano.a(lib_a-impure.o)
                              c:/vsarm/armcc/10 2021.10/bin/../lib/gcc/arm-none-eabi/10.3.1/../../../../arm-none-eabi/lib/thumb/v7-m/nofp\libc_nano.a(lib_a-exit.o) (_global_impure_ptr)
c:/vsarm/armcc/10 2021.10/bin/../lib/gcc/arm-none-eabi/10.3.1/../../../../arm-none-eabi/lib/thumb/v7-m/nofp\libc_nano.a(lib_a-init.o)
                              c:/vsarm/armcc/10 2021.10/bin/../lib/gcc/arm-none-eabi/10.3.1/../../../../arm-none-eabi/lib/thumb/v7-m/nofp/crt0.o (__libc_init_array)
c:/vsarm/armcc/10 2021.10/bin/../lib/gcc/arm-none-eabi/10.3.1/../../../../arm-none-eabi/lib/thumb/v7-m/nofp\libc_nano.a(lib_a-memcmp.o)
                              build/main.o (memcmp)
c:/vsarm/armcc/10 2021.10/bin/../lib/gcc/arm-none-eabi/10.3.1/../../../../arm-none-eabi/lib/thumb/v7-m/nofp\libc_nano.a(lib_a-memcpy-stub.o)
                              build/main.o (memcpy)
c:/vsarm/armcc/10 2021.10/bin/../lib/gcc/arm-none-eabi/10.3.1/../../../../arm-none-eabi/lib/thumb/v7-m/nofp\libc_nano.a(lib_a-memset.o)
                              c:/vsarm/armcc/10 2021.10/bin/../lib/gcc/arm-none-eabi/10.3.1/../../../../arm-none-eabi/lib/thumb/v7-m/nofp/crt0.o (memset)
c:/vsarm/armcc/10 2021.10/bin/../lib/gcc/arm-none-eabi/10.3.1/../../../../arm-none-eabi/lib/thumb/v7-m/nofp\libc_nano.a(lib_a-printf.o)
                              build/sio.o (printf)
c:/vsarm/armcc/10 2021.10/bin/../lib/gcc/arm-none-eabi/10.3.1/../../../../arm-none-eabi/lib/thumb/v7-m/nofp\libc_nano.a(lib_a-sprintf.o)
                              build/main.o (sprintf)
c:/vsarm/armcc/10 2021.10/bin/../lib/gcc/arm-none-eabi/10.3.1/../../../../arm-none-eabi/lib/thumb/v7-m/nofp\libc_nano.a(lib_a-strlen.o)
                              build/main.o (strlen)
c:/vsarm/armcc/10 2021.10/bin/../lib/gcc/arm-none-eabi/10.3.1/../../../../arm-none-eabi/lib/thumb/v7-m/nofp\libc_nano.a(lib_a-strncmp.o)
                              build/def.o (strncmp)
c:/vsarm/armcc/10 2021.10/bin/../lib/gcc/arm-none-eabi/10.3.1/../../../../arm-none-eabi/lib/thumb/v7-m/nofp\libc_nano.a(lib_a-findfp.o)
                              c:/vsarm/armcc/10 2021.10/bin/../lib/gcc/arm-none-eabi/10.3.1/../../../../arm-none-eabi/lib/thumb/v7-m/nofp\libc_nano.a(lib_a-printf.o) (__sinit)
c:/vsarm/armcc/10 2021.10/bin/../lib/gcc/arm-none-eabi/10.3.1/../../../../arm-none-eabi/lib/thumb/v7-m/nofp\libc_nano.a(lib_a-fwalk.o)
                              c:/vsarm/armcc/10 2021.10/bin/../lib/gcc/arm-none-eabi/10.3.1/../../../../arm-none-eabi/lib/thumb/v7-m/nofp\libc_nano.a(lib_a-findfp.o) (_fwalk)
c:/vsarm/armcc/10 2021.10/bin/../lib/gcc/arm-none-eabi/10.3.1/../../../../arm-none-eabi/lib/thumb/v7-m/nofp\libc_nano.a(lib_a-lock.o)
                              c:/vsarm/armcc/10 2021.10/bin/../lib/gcc/arm-none-eabi/10.3.1/../../../../arm-none-eabi/lib/thumb/v7-m/nofp\libc_nano.a(lib_a-findfp.o) (__retarget_lock_init_recursive)
c:/vsarm/armcc/10 2021.10/bin/../lib/gcc/arm-none-eabi/10.3.1/../../../../arm-none-eabi/lib/thumb/v7-m/nofp\libc_nano.a(lib_a-nano-mallocr.o)
                              c:/vsarm/armcc/10 2021.10/bin/../lib/gcc/arm-none-eabi/10.3.1/../../../../arm-none-eabi/lib/thumb/v7-m/nofp\libc_nano.a(lib_a-findfp.o) (_malloc_r)
c:/vsarm/armcc/10 2021.10/bin/../lib/gcc/arm-none-eabi/10.3.1/../../../../arm-none-eabi/lib/thumb/v7-m/nofp\libc_nano.a(lib_a-nano-svfprintf.o)
                              c:/vsarm/armcc/10 2021.10/bin/../lib/gcc/arm-none-eabi/10.3.1/../../../../arm-none-eabi/lib/thumb/v7-m/nofp\libc_nano.a(lib_a-sprintf.o) (_svfprintf_r)
c:/vsarm/armcc/10 2021.10/bin/../lib/gcc/arm-none-eabi/10.3.1/../../../../arm-none-eabi/lib/thumb/v7-m/nofp\libc_nano.a(lib_a-nano-vfprintf.o)
                              c:/vsarm/armcc/10 2021.10/bin/../lib/gcc/arm-none-eabi/10.3.1/../../../../arm-none-eabi/lib/thumb/v7-m/nofp\libc_nano.a(lib_a-printf.o) (_vfprintf_r)
c:/vsarm/armcc/10 2021.10/bin/../lib/gcc/arm-none-eabi/10.3.1/../../../../arm-none-eabi/lib/thumb/v7-m/nofp\libc_nano.a(lib_a-nano-vfprintf_i.o)
                              c:/vsarm/armcc/10 2021.10/bin/../lib/gcc/arm-none-eabi/10.3.1/../../../../arm-none-eabi/lib/thumb/v7-m/nofp\libc_nano.a(lib_a-nano-svfprintf.o) (_printf_i)
c:/vsarm/armcc/10 2021.10/bin/../lib/gcc/arm-none-eabi/10.3.1/../../../../arm-none-eabi/lib/thumb/v7-m/nofp\libc_nano.a(lib_a-sbrkr.o)
                              c:/vsarm/armcc/10 2021.10/bin/../lib/gcc/arm-none-eabi/10.3.1/../../../../arm-none-eabi/lib/thumb/v7-m/nofp\libc_nano.a(lib_a-nano-mallocr.o) (_sbrk_r)
c:/vsarm/armcc/10 2021.10/bin/../lib/gcc/arm-none-eabi/10.3.1/../../../../arm-none-eabi/lib/thumb/v7-m/nofp\libc_nano.a(lib_a-stdio.o)
                              c:/vsarm/armcc/10 2021.10/bin/../lib/gcc/arm-none-eabi/10.3.1/../../../../arm-none-eabi/lib/thumb/v7-m/nofp\libc_nano.a(lib_a-findfp.o) (__sread)
c:/vsarm/armcc/10 2021.10/bin/../lib/gcc/arm-none-eabi/10.3.1/../../../../arm-none-eabi/lib/thumb/v7-m/nofp\libc_nano.a(lib_a-wbuf.o)
                              c:/vsarm/armcc/10 2021.10/bin/../lib/gcc/arm-none-eabi/10.3.1/../../../../arm-none-eabi/lib/thumb/v7-m/nofp\libc_nano.a(lib_a-nano-vfprintf.o) (__swbuf_r)
c:/vsarm/armcc/10 2021.10/bin/../lib/gcc/arm-none-eabi/10.3.1/../../../../arm-none-eabi/lib/thumb/v7-m/nofp\libc_nano.a(lib_a-writer.o)
                              c:/vsarm/armcc/10 2021.10/bin/../lib/gcc/arm-none-eabi/10.3.1/../../../../arm-none-eabi/lib/thumb/v7-m/nofp\libc_nano.a(lib_a-stdio.o) (_write_r)
c:/vsarm/armcc/10 2021.10/bin/../lib/gcc/arm-none-eabi/10.3.1/../../../../arm-none-eabi/lib/thumb/v7-m/nofp\libc_nano.a(lib_a-wsetup.o)
                              c:/vsarm/armcc/10 2021.10/bin/../lib/gcc/arm-none-eabi/10.3.1/../../../../arm-none-eabi/lib/thumb/v7-m/nofp\libc_nano.a(lib_a-nano-vfprintf.o) (__swsetup_r)
c:/vsarm/armcc/10 2021.10/bin/../lib/gcc/arm-none-eabi/10.3.1/../../../../arm-none-eabi/lib/thumb/v7-m/nofp\libc_nano.a(lib_a-closer.o)
                              c:/vsarm/armcc/10 2021.10/bin/../lib/gcc/arm-none-eabi/10.3.1/../../../../arm-none-eabi/lib/thumb/v7-m/nofp\libc_nano.a(lib_a-stdio.o) (_close_r)
c:/vsarm/armcc/10 2021.10/bin/../lib/gcc/arm-none-eabi/10.3.1/../../../../arm-none-eabi/lib/thumb/v7-m/nofp\libc_nano.a(lib_a-fflush.o)
                              c:/vsarm/armcc/10 2021.10/bin/../lib/gcc/arm-none-eabi/10.3.1/../../../../arm-none-eabi/lib/thumb/v7-m/nofp\libc_nano.a(lib_a-findfp.o) (_fflush_r)
c:/vsarm/armcc/10 2021.10/bin/../lib/gcc/arm-none-eabi/10.3.1/../../../../arm-none-eabi/lib/thumb/v7-m/nofp\libc_nano.a(lib_a-fvwrite.o)
                              c:/vsarm/armcc/10 2021.10/bin/../lib/gcc/arm-none-eabi/10.3.1/../../../../arm-none-eabi/lib/thumb/v7-m/nofp\libc_nano.a(lib_a-nano-vfprintf.o) (__sfvwrite_r)
c:/vsarm/armcc/10 2021.10/bin/../lib/gcc/arm-none-eabi/10.3.1/../../../../arm-none-eabi/lib/thumb/v7-m/nofp\libc_nano.a(lib_a-lseekr.o)
                              c:/vsarm/armcc/10 2021.10/bin/../lib/gcc/arm-none-eabi/10.3.1/../../../../arm-none-eabi/lib/thumb/v7-m/nofp\libc_nano.a(lib_a-stdio.o) (_lseek_r)
c:/vsarm/armcc/10 2021.10/bin/../lib/gcc/arm-none-eabi/10.3.1/../../../../arm-none-eabi/lib/thumb/v7-m/nofp\libc_nano.a(lib_a-makebuf.o)
                              c:/vsarm/armcc/10 2021.10/bin/../lib/gcc/arm-none-eabi/10.3.1/../../../../arm-none-eabi/lib/thumb/v7-m/nofp\libc_nano.a(lib_a-wsetup.o) (__smakebuf_r)
c:/vsarm/armcc/10 2021.10/bin/../lib/gcc/arm-none-eabi/10.3.1/../../../../arm-none-eabi/lib/thumb/v7-m/nofp\libc_nano.a(lib_a-memchr-stub.o)
                              c:/vsarm/armcc/10 2021.10/bin/../lib/gcc/arm-none-eabi/10.3.1/../../../../arm-none-eabi/lib/thumb/v7-m/nofp\libc_nano.a(lib_a-nano-svfprintf.o) (memchr)
c:/vsarm/armcc/10 2021.10/bin/../lib/gcc/arm-none-eabi/10.3.1/../../../../arm-none-eabi/lib/thumb/v7-m/nofp\libc_nano.a(lib_a-memmove.o)
                              c:/vsarm/armcc/10 2021.10/bin/../lib/gcc/arm-none-eabi/10.3.1/../../../../arm-none-eabi/lib/thumb/v7-m/nofp\libc_nano.a(lib_a-nano-svfprintf.o) (memmove)
c:/vsarm/armcc/10 2021.10/bin/../lib/gcc/arm-none-eabi/10.3.1/../../../../arm-none-eabi/lib/thumb/v7-m/nofp\libc_nano.a(lib_a-mlock.o)
                              c:/vsarm/armcc/10 2021.10/bin/../lib/gcc/arm-none-eabi/10.3.1/../../../../arm-none-eabi/lib/thumb/v7-m/nofp\libc_nano.a(lib_a-nano-mallocr.o) (__malloc_lock)
c:/vsarm/armcc/10 2021.10/bin/../lib/gcc/arm-none-eabi/10.3.1/../../../../arm-none-eabi/lib/thumb/v7-m/nofp\libc_nano.a(lib_a-nano-freer.o)
                              c:/vsarm/armcc/10 2021.10/bin/../lib/gcc/arm-none-eabi/10.3.1/../../../../arm-none-eabi/lib/thumb/v7-m/nofp\libc_nano.a(lib_a-nano-svfprintf.o) (_free_r)
c:/vsarm/armcc/10 2021.10/bin/../lib/gcc/arm-none-eabi/10.3.1/../../../../arm-none-eabi/lib/thumb/v7-m/nofp\libc_nano.a(lib_a-nano-reallocr.o)
                              c:/vsarm/armcc/10 2021.10/bin/../lib/gcc/arm-none-eabi/10.3.1/../../../../arm-none-eabi/lib/thumb/v7-m/nofp\libc_nano.a(lib_a-nano-svfprintf.o) (_realloc_r)
c:/vsarm/armcc/10 2021.10/bin/../lib/gcc/arm-none-eabi/10.3.1/../../../../arm-none-eabi/lib/thumb/v7-m/nofp\libc_nano.a(lib_a-readr.o)
                              c:/vsarm/armcc/10 2021.10/bin/../lib/gcc/arm-none-eabi/10.3.1/../../../../arm-none-eabi/lib/thumb/v7-m/nofp\libc_nano.a(lib_a-stdio.o) (_read_r)
c:/vsarm/armcc/10 2021.10/bin/../lib/gcc/arm-none-eabi/10.3.1/../../../../arm-none-eabi/lib/thumb/v7-m/nofp\libc_nano.a(lib_a-fstatr.o)
                              c:/vsarm/armcc/10 2021.10/bin/../lib/gcc/arm-none-eabi/10.3.1/../../../../arm-none-eabi/lib/thumb/v7-m/nofp\libc_nano.a(lib_a-makebuf.o) (_fstat_r)
c:/vsarm/armcc/10 2021.10/bin/../lib/gcc/arm-none-eabi/10.3.1/../../../../arm-none-eabi/lib/thumb/v7-m/nofp\libc_nano.a(lib_a-isattyr.o)
                              c:/vsarm/armcc/10 2021.10/bin/../lib/gcc/arm-none-eabi/10.3.1/../../../../arm-none-eabi/lib/thumb/v7-m/nofp\libc_nano.a(lib_a-makebuf.o) (_isatty_r)
c:/vsarm/armcc/10 2021.10/bin/../lib/gcc/arm-none-eabi/10.3.1/../../../../arm-none-eabi/lib/thumb/v7-m/nofp\libc_nano.a(lib_a-nano-msizer.o)
                              c:/vsarm/armcc/10 2021.10/bin/../lib/gcc/arm-none-eabi/10.3.1/../../../../arm-none-eabi/lib/thumb/v7-m/nofp\libc_nano.a(lib_a-nano-reallocr.o) (_malloc_usable_size_r)
c:/vsarm/armcc/10 2021.10/bin/../lib/gcc/arm-none-eabi/10.3.1/../../../../arm-none-eabi/lib/thumb/v7-m/nofp\libnosys.a(close.o)
                              c:/vsarm/armcc/10 2021.10/bin/../lib/gcc/arm-none-eabi/10.3.1/../../../../arm-none-eabi/lib/thumb/v7-m/nofp\libc_nano.a(lib_a-closer.o) (_close)
c:/vsarm/armcc/10 2021.10/bin/../lib/gcc/arm-none-eabi/10.3.1/../../../../arm-none-eabi/lib/thumb/v7-m/nofp\libnosys.a(fstat.o)
                              c:/vsarm/armcc/10 2021.10/bin/../lib/gcc/arm-none-eabi/10.3.1/../../../../arm-none-eabi/lib/thumb/v7-m/nofp\libc_nano.a(lib_a-fstatr.o) (_fstat)
c:/vsarm/armcc/10 2021.10/bin/../lib/gcc/arm-none-eabi/10.3.1/../../../../arm-none-eabi/lib/thumb/v7-m/nofp\libnosys.a(isatty.o)
                              c:/vsarm/armcc/10 2021.10/bin/../lib/gcc/arm-none-eabi/10.3.1/../../../../arm-none-eabi/lib/thumb/v7-m/nofp\libc_nano.a(lib_a-isattyr.o) (_isatty)
c:/vsarm/armcc/10 2021.10/bin/../lib/gcc/arm-none-eabi/10.3.1/../../../../arm-none-eabi/lib/thumb/v7-m/nofp\libnosys.a(lseek.o)
                              c:/vsarm/armcc/10 2021.10/bin/../lib/gcc/arm-none-eabi/10.3.1/../../../../arm-none-eabi/lib/thumb/v7-m/nofp\libc_nano.a(lib_a-lseekr.o) (_lseek)
c:/vsarm/armcc/10 2021.10/bin/../lib/gcc/arm-none-eabi/10.3.1/../../../../arm-none-eabi/lib/thumb/v7-m/nofp\libnosys.a(read.o)
                              c:/vsarm/armcc/10 2021.10/bin/../lib/gcc/arm-none-eabi/10.3.1/../../../../arm-none-eabi/lib/thumb/v7-m/nofp\libc_nano.a(lib_a-readr.o) (_read)
c:/vsarm/armcc/10 2021.10/bin/../lib/gcc/arm-none-eabi/10.3.1/../../../../arm-none-eabi/lib/thumb/v7-m/nofp\libnosys.a(sbrk.o)
                              c:/vsarm/armcc/10 2021.10/bin/../lib/gcc/arm-none-eabi/10.3.1/../../../../arm-none-eabi/lib/thumb/v7-m/nofp\libc_nano.a(lib_a-sbrkr.o) (_sbrk)
c:/vsarm/armcc/10 2021.10/bin/../lib/gcc/arm-none-eabi/10.3.1/../../../../arm-none-eabi/lib/thumb/v7-m/nofp\libnosys.a(write.o)
                              c:/vsarm/armcc/10 2021.10/bin/../lib/gcc/arm-none-eabi/10.3.1/../../../../arm-none-eabi/lib/thumb/v7-m/nofp\libc_nano.a(lib_a-writer.o) (_write)
c:/vsarm/armcc/10 2021.10/bin/../lib/gcc/arm-none-eabi/10.3.1/../../../../arm-none-eabi/lib/thumb/v7-m/nofp\libnosys.a(_exit.o)
                              c:/vsarm/armcc/10 2021.10/bin/../lib/gcc/arm-none-eabi/10.3.1/../../../../arm-none-eabi/lib/thumb/v7-m/nofp\libc_nano.a(lib_a-exit.o) (_exit)
c:/vsarm/armcc/10 2021.10/bin/../lib/gcc/arm-none-eabi/10.3.1/thumb/v7-m/nofp\libgcc.a(_aeabi_uldivmod.o)
                              build/stm32f2xx_hal_rcc.o (__aeabi_uldivmod)
c:/vsarm/armcc/10 2021.10/bin/../lib/gcc/arm-none-eabi/10.3.1/thumb/v7-m/nofp\libgcc.a(_udivmoddi4.o)
                              c:/vsarm/armcc/10 2021.10/bin/../lib/gcc/arm-none-eabi/10.3.1/thumb/v7-m/nofp\libgcc.a(_aeabi_uldivmod.o) (__udivmoddi4)
c:/vsarm/armcc/10 2021.10/bin/../lib/gcc/arm-none-eabi/10.3.1/thumb/v7-m/nofp\libgcc.a(_dvmd_tls.o)
                              c:/vsarm/armcc/10 2021.10/bin/../lib/gcc/arm-none-eabi/10.3.1/thumb/v7-m/nofp\libgcc.a(_aeabi_uldivmod.o) (__aeabi_ldiv0)

Discarded input sections

 .text          0x00000000        0x0 c:/vsarm/armcc/10 2021.10/bin/../lib/gcc/arm-none-eabi/10.3.1/thumb/v7-m/nofp/crti.o
 .data          0x00000000        0x0 c:/vsarm/armcc/10 2021.10/bin/../lib/gcc/arm-none-eabi/10.3.1/thumb/v7-m/nofp/crti.o
 .bss           0x00000000        0x0 c:/vsarm/armcc/10 2021.10/bin/../lib/gcc/arm-none-eabi/10.3.1/thumb/v7-m/nofp/crti.o
 .data          0x00000000        0x4 c:/vsarm/armcc/10 2021.10/bin/../lib/gcc/arm-none-eabi/10.3.1/thumb/v7-m/nofp/crtbegin.o
 .rodata        0x00000000       0x24 c:/vsarm/armcc/10 2021.10/bin/../lib/gcc/arm-none-eabi/10.3.1/thumb/v7-m/nofp/crtbegin.o
 .text          0x00000000       0x7c c:/vsarm/armcc/10 2021.10/bin/../lib/gcc/arm-none-eabi/10.3.1/../../../../arm-none-eabi/lib/thumb/v7-m/nofp/crt0.o
 .data          0x00000000        0x0 c:/vsarm/armcc/10 2021.10/bin/../lib/gcc/arm-none-eabi/10.3.1/../../../../arm-none-eabi/lib/thumb/v7-m/nofp/crt0.o
 .bss           0x00000000        0x0 c:/vsarm/armcc/10 2021.10/bin/../lib/gcc/arm-none-eabi/10.3.1/../../../../arm-none-eabi/lib/thumb/v7-m/nofp/crt0.o
 .ARM.extab     0x00000000        0x0 c:/vsarm/armcc/10 2021.10/bin/../lib/gcc/arm-none-eabi/10.3.1/../../../../arm-none-eabi/lib/thumb/v7-m/nofp/crt0.o
 .ARM.exidx     0x00000000       0x10 c:/vsarm/armcc/10 2021.10/bin/../lib/gcc/arm-none-eabi/10.3.1/../../../../arm-none-eabi/lib/thumb/v7-m/nofp/crt0.o
 .ARM.attributes
                0x00000000       0x1b c:/vsarm/armcc/10 2021.10/bin/../lib/gcc/arm-none-eabi/10.3.1/../../../../arm-none-eabi/lib/thumb/v7-m/nofp/crt0.o
 .text          0x00000000        0x0 build/main.o
 .data          0x00000000        0x0 build/main.o
 .bss           0x00000000        0x0 build/main.o
 .data.wo_cmd   0x00000000       0x60 build/main.o
 .bss.abuf      0x00000000       0x14 build/main.o
 .data.wo_shell
                0x00000000       0x10 build/main.o
 .bss.tn_client
                0x00000000       0x23 build/main.o
 .data.tn_admin
                0x00000000       0x23 build/main.o
 .data.tn_vadim
                0x00000000       0x23 build/main.o
 .text.TNreceiver_callback
                0x00000000      0x244 build/main.o
 .text.TNcommand_callback
                0x00000000       0x16 build/main.o
 .text.TNbegin_callback
                0x00000000       0x3c build/main.o
 .text.TNend_callback
                0x00000000       0x44 build/main.o
 .data.funcCB   0x00000000       0x10 build/main.o
 .text.fun_cmd_main
                0x00000000      0x10c build/main.o
 .text.cmd_quit
                0x00000000       0x74 build/main.o
 .text.cmd_help
                0x00000000      0x188 build/main.o
 .text.cmd_mode_set
                0x00000000       0x16 build/main.o
 .text.cmd_temp
                0x00000000       0x16 build/main.o
 .text.cmd_dist
                0x00000000       0x16 build/main.o
 .text.cmd_cfg_set
                0x00000000       0x16 build/main.o
 .text.cmd_cfg_get
                0x00000000       0x16 build/main.o
 .text          0x00000000        0x0 build/telnet_server.o
 .data          0x00000000        0x0 build/telnet_server.o
 .bss           0x00000000        0x0 build/telnet_server.o
 .bss.telnet_instance
                0x00000000      0x43c build/telnet_server.o
 .rodata.tx_cycle_period
                0x00000000        0x4 build/telnet_server.o
 .rodata        0x00000000       0x32 build/telnet_server.o
 .rodata.srv_task_attributes
                0x00000000       0x24 build/telnet_server.o
 .rodata.wrt_task_attributes
                0x00000000       0x24 build/telnet_server.o
 .rodata.rcv_task_attributes
                0x00000000       0x24 build/telnet_server.o
 .text.telnet_create
                0x00000000       0x44 build/telnet_server.o
 .text.netconn_cb
                0x00000000       0x58 build/telnet_server.o
 .text.srv_task
                0x00000000      0x100 build/telnet_server.o
 .text.wrt_task
                0x00000000       0xac build/telnet_server.o
 .text.rcv_task
                0x00000000       0x78 build/telnet_server.o
 .text.telnet_transmit
                0x00000000       0xac build/telnet_server.o
 .text.process_incoming_bytes
                0x00000000      0x190 build/telnet_server.o
 .debug_info    0x00000000      0xbb6 build/telnet_server.o
 .debug_abbrev  0x00000000      0x248 build/telnet_server.o
 .debug_loc     0x00000000      0x200 build/telnet_server.o
 .debug_aranges
                0x00000000       0x50 build/telnet_server.o
 .debug_ranges  0x00000000       0x40 build/telnet_server.o
 .debug_line    0x00000000      0x5a8 build/telnet_server.o
 .debug_str     0x00000000      0xbe5 build/telnet_server.o
 .comment       0x00000000       0x4a build/telnet_server.o
 .debug_frame   0x00000000      0x108 build/telnet_server.o
 .ARM.attributes
                0x00000000       0x2d build/telnet_server.o
 .text          0x00000000        0x0 build/mcli.o
 .data          0x00000000        0x0 build/mcli.o
 .bss           0x00000000        0x0 build/mcli.o
 .text.mcli_strlen
                0x00000000       0x54 build/mcli.o
 .text.mcli_strcmp
                0x00000000       0x76 build/mcli.o
 .text._mcli_is_in
                0x00000000       0x38 build/mcli.o
 .text.mcli_strtok
                0x00000000       0xbc build/mcli.o
 .rodata        0x00000000        0x6 build/mcli.o
 .text.mcli_shell_parse
                0x00000000      0x178 build/mcli.o
 .debug_info    0x00000000      0x385 build/mcli.o
 .debug_abbrev  0x00000000      0x17f build/mcli.o
 .debug_loc     0x00000000      0x1b4 build/mcli.o
 .debug_aranges
                0x00000000       0x40 build/mcli.o
 .debug_ranges  0x00000000       0x30 build/mcli.o
 .debug_line    0x00000000      0x26d build/mcli.o
 .debug_str     0x00000000      0x1e0 build/mcli.o
 .comment       0x00000000       0x4a build/mcli.o
 .debug_frame   0x00000000       0xd0 build/mcli.o
 .ARM.attributes
                0x00000000       0x2d build/mcli.o
 .text          0x00000000        0x0 build/sio.o
 .data          0x00000000        0x0 build/sio.o
 .bss           0x00000000        0x0 build/sio.o
 .text.sio_tryread
                0x00000000       0x20 build/sio.o
 .text.sio_write
                0x00000000       0x3a build/sio.o
 .text          0x00000000        0x0 build/freertos.o
 .data          0x00000000        0x0 build/freertos.o
 .bss           0x00000000        0x0 build/freertos.o
 .debug_info    0x00000000       0x72 build/freertos.o
 .debug_abbrev  0x00000000       0x26 build/freertos.o
 .debug_aranges
                0x00000000       0x18 build/freertos.o
 .debug_line    0x00000000       0x1d build/freertos.o
 .debug_str     0x00000000      0x16c build/freertos.o
 .comment       0x00000000       0x4a build/freertos.o
 .ARM.attributes
                0x00000000       0x2d build/freertos.o
 .text          0x00000000        0x0 build/stm32f2xx_it.o
 .data          0x00000000        0x0 build/stm32f2xx_it.o
 .bss           0x00000000        0x0 build/stm32f2xx_it.o
 .text          0x00000000        0x0 build/stm32f2xx_hal_msp.o
 .data          0x00000000        0x0 build/stm32f2xx_hal_msp.o
 .bss           0x00000000        0x0 build/stm32f2xx_hal_msp.o
 .text.HAL_UART_MspDeInit
                0x00000000       0x6c build/stm32f2xx_hal_msp.o
 .text          0x00000000        0x0 build/stm32f2xx_hal_timebase_tim.o
 .data          0x00000000        0x0 build/stm32f2xx_hal_timebase_tim.o
 .bss           0x00000000        0x0 build/stm32f2xx_hal_timebase_tim.o
 .text.HAL_SuspendTick
                0x00000000       0x20 build/stm32f2xx_hal_timebase_tim.o
 .text.HAL_ResumeTick
                0x00000000       0x20 build/stm32f2xx_hal_timebase_tim.o
 .text          0x00000000        0x0 build/ethernetif.o
 .data          0x00000000        0x0 build/ethernetif.o
 .bss           0x00000000        0x0 build/ethernetif.o
 .text.HAL_ETH_MspDeInit
                0x00000000       0x80 build/ethernetif.o
 .text.sys_jiffies
                0x00000000        0xe build/ethernetif.o
 .text          0x00000000        0x0 build/lwip.o
 .data          0x00000000        0x0 build/lwip.o
 .bss           0x00000000        0x0 build/lwip.o
 .text          0x00000000        0x0 build/stm32f2xx_hal_eth.o
 .data          0x00000000        0x0 build/stm32f2xx_hal_eth.o
 .bss           0x00000000        0x0 build/stm32f2xx_hal_eth.o
 .text.HAL_ETH_DeInit
                0x00000000       0x30 build/stm32f2xx_hal_eth.o
 .text.HAL_ETH_MspInit
                0x00000000       0x12 build/stm32f2xx_hal_eth.o
 .text.HAL_ETH_MspDeInit
                0x00000000       0x12 build/stm32f2xx_hal_eth.o
 .text.HAL_ETH_GetReceivedFrame
                0x00000000      0x106 build/stm32f2xx_hal_eth.o
 .text.HAL_ETH_RxCpltCallback
                0x00000000       0x12 build/stm32f2xx_hal_eth.o
 .text.HAL_ETH_ConfigDMA
                0x00000000      0x120 build/stm32f2xx_hal_eth.o
 .text.HAL_ETH_GetState
                0x00000000       0x1a build/stm32f2xx_hal_eth.o
 .text          0x00000000        0x0 build/stm32f2xx_hal.o
 .data          0x00000000        0x0 build/stm32f2xx_hal.o
 .bss           0x00000000        0x0 build/stm32f2xx_hal.o
 .text.HAL_DeInit
                0x00000000       0x58 build/stm32f2xx_hal.o
 .text.HAL_MspInit
                0x00000000        0xc build/stm32f2xx_hal.o
 .text.HAL_MspDeInit
                0x00000000        0xc build/stm32f2xx_hal.o
 .text.HAL_InitTick
                0x00000000       0x60 build/stm32f2xx_hal.o
 .text.HAL_GetTickPrio
                0x00000000       0x14 build/stm32f2xx_hal.o
 .text.HAL_SetTickFreq
                0x00000000       0x50 build/stm32f2xx_hal.o
 .text.HAL_GetTickFreq
                0x00000000       0x14 build/stm32f2xx_hal.o
 .text.HAL_SuspendTick
                0x00000000       0x1c build/stm32f2xx_hal.o
 .text.HAL_ResumeTick
                0x00000000       0x1c build/stm32f2xx_hal.o
 .text.HAL_GetHalVersion
                0x00000000       0x14 build/stm32f2xx_hal.o
 .text.HAL_GetREVID
                0x00000000       0x18 build/stm32f2xx_hal.o
 .text.HAL_GetDEVID
                0x00000000       0x18 build/stm32f2xx_hal.o
 .text.HAL_DBGMCU_EnableDBGSleepMode
                0x00000000       0x1c build/stm32f2xx_hal.o
 .text.HAL_DBGMCU_DisableDBGSleepMode
                0x00000000       0x1c build/stm32f2xx_hal.o
 .text.HAL_DBGMCU_EnableDBGStopMode
                0x00000000       0x1c build/stm32f2xx_hal.o
 .text.HAL_DBGMCU_DisableDBGStopMode
                0x00000000       0x1c build/stm32f2xx_hal.o
 .text.HAL_DBGMCU_EnableDBGStandbyMode
                0x00000000       0x1c build/stm32f2xx_hal.o
 .text.HAL_DBGMCU_DisableDBGStandbyMode
                0x00000000       0x1c build/stm32f2xx_hal.o
 .text.HAL_EnableCompensationCell
                0x00000000       0x38 build/stm32f2xx_hal.o
 .text.HAL_DisableCompensationCell
                0x00000000       0x38 build/stm32f2xx_hal.o
 .text.HAL_GetUIDw0
                0x00000000       0x14 build/stm32f2xx_hal.o
 .text.HAL_GetUIDw1
                0x00000000       0x14 build/stm32f2xx_hal.o
 .text.HAL_GetUIDw2
                0x00000000       0x14 build/stm32f2xx_hal.o
 .text          0x00000000        0x0 build/stm32f2xx_hal_rcc.o
 .data          0x00000000        0x0 build/stm32f2xx_hal_rcc.o
 .bss           0x00000000        0x0 build/stm32f2xx_hal_rcc.o
 .text.HAL_RCC_DeInit
                0x00000000      0x164 build/stm32f2xx_hal_rcc.o
 .text.HAL_RCC_MCOConfig
                0x00000000       0xd0 build/stm32f2xx_hal_rcc.o
 .text.HAL_RCC_EnableCSS
                0x00000000       0x18 build/stm32f2xx_hal_rcc.o
 .text.HAL_RCC_DisableCSS
                0x00000000       0x18 build/stm32f2xx_hal_rcc.o
 .text.HAL_RCC_GetOscConfig
                0x00000000      0x184 build/stm32f2xx_hal_rcc.o
 .text.HAL_RCC_NMI_IRQHandler
                0x00000000       0x28 build/stm32f2xx_hal_rcc.o
 .text.HAL_RCC_CSSCallback
                0x00000000        0xc build/stm32f2xx_hal_rcc.o
 .text          0x00000000        0x0 build/stm32f2xx_hal_rcc_ex.o
 .data          0x00000000        0x0 build/stm32f2xx_hal_rcc_ex.o
 .bss           0x00000000        0x0 build/stm32f2xx_hal_rcc_ex.o
 .text.HAL_RCCEx_PeriphCLKConfig
                0x00000000      0x1ec build/stm32f2xx_hal_rcc_ex.o
 .text.HAL_RCCEx_GetPeriphCLKConfig
                0x00000000       0x88 build/stm32f2xx_hal_rcc_ex.o
 .text.HAL_RCCEx_EnablePLLI2S
                0x00000000       0xb4 build/stm32f2xx_hal_rcc_ex.o
 .text.HAL_RCCEx_DisablePLLI2S
                0x00000000       0x44 build/stm32f2xx_hal_rcc_ex.o
 .debug_info    0x00000000      0x5f8 build/stm32f2xx_hal_rcc_ex.o
 .debug_abbrev  0x00000000      0x203 build/stm32f2xx_hal_rcc_ex.o
 .debug_loc     0x00000000      0x14c build/stm32f2xx_hal_rcc_ex.o
 .debug_aranges
                0x00000000       0x38 build/stm32f2xx_hal_rcc_ex.o
 .debug_ranges  0x00000000       0x28 build/stm32f2xx_hal_rcc_ex.o
 .debug_line    0x00000000      0x3e6 build/stm32f2xx_hal_rcc_ex.o
 .debug_str     0x00000000      0x438 build/stm32f2xx_hal_rcc_ex.o
 .comment       0x00000000       0x4a build/stm32f2xx_hal_rcc_ex.o
 .debug_frame   0x00000000       0xa4 build/stm32f2xx_hal_rcc_ex.o
 .ARM.attributes
                0x00000000       0x2d build/stm32f2xx_hal_rcc_ex.o
 .text          0x00000000        0x0 build/stm32f2xx_hal_cortex.o
 .data          0x00000000        0x0 build/stm32f2xx_hal_cortex.o
 .bss           0x00000000        0x0 build/stm32f2xx_hal_cortex.o
 .text.__NVIC_DisableIRQ
                0x00000000       0x48 build/stm32f2xx_hal_cortex.o
 .text.__NVIC_GetPendingIRQ
                0x00000000       0x40 build/stm32f2xx_hal_cortex.o
 .text.__NVIC_SetPendingIRQ
                0x00000000       0x3c build/stm32f2xx_hal_cortex.o
 .text.__NVIC_ClearPendingIRQ
                0x00000000       0x3c build/stm32f2xx_hal_cortex.o
 .text.__NVIC_GetActive
                0x00000000       0x40 build/stm32f2xx_hal_cortex.o
 .text.__NVIC_GetPriority
                0x00000000       0x4c build/stm32f2xx_hal_cortex.o
 .text.NVIC_DecodePriority
                0x00000000       0x6c build/stm32f2xx_hal_cortex.o
 .text.__NVIC_SystemReset
                0x00000000       0x2c build/stm32f2xx_hal_cortex.o
 .text.SysTick_Config
                0x00000000       0x44 build/stm32f2xx_hal_cortex.o
 .text.HAL_NVIC_DisableIRQ
                0x00000000       0x1c build/stm32f2xx_hal_cortex.o
 .text.HAL_NVIC_SystemReset
                0x00000000        0x8 build/stm32f2xx_hal_cortex.o
 .text.HAL_SYSTICK_Config
                0x00000000       0x18 build/stm32f2xx_hal_cortex.o
 .text.HAL_MPU_Disable
                0x00000000       0x2c build/stm32f2xx_hal_cortex.o
 .text.HAL_MPU_Enable
                0x00000000       0x3c build/stm32f2xx_hal_cortex.o
 .text.HAL_MPU_ConfigRegion
                0x00000000       0x88 build/stm32f2xx_hal_cortex.o
 .text.HAL_NVIC_GetPriorityGrouping
                0x00000000        0xe build/stm32f2xx_hal_cortex.o
 .text.HAL_NVIC_GetPriority
                0x00000000       0x2c build/stm32f2xx_hal_cortex.o
 .text.HAL_NVIC_SetPendingIRQ
                0x00000000       0x1c build/stm32f2xx_hal_cortex.o
 .text.HAL_NVIC_GetPendingIRQ
                0x00000000       0x1e build/stm32f2xx_hal_cortex.o
 .text.HAL_NVIC_ClearPendingIRQ
                0x00000000       0x1c build/stm32f2xx_hal_cortex.o
 .text.HAL_NVIC_GetActive
                0x00000000       0x1e build/stm32f2xx_hal_cortex.o
 .text.HAL_SYSTICK_CLKSourceConfig
                0x00000000       0x38 build/stm32f2xx_hal_cortex.o
 .text.HAL_SYSTICK_IRQHandler
                0x00000000        0xc build/stm32f2xx_hal_cortex.o
 .text.HAL_SYSTICK_Callback
                0x00000000        0xc build/stm32f2xx_hal_cortex.o
 .text          0x00000000        0x0 build/stm32f2xx_hal_flash.o
 .data          0x00000000        0x0 build/stm32f2xx_hal_flash.o
 .bss           0x00000000        0x0 build/stm32f2xx_hal_flash.o
 .bss.pFlash    0x00000000       0x20 build/stm32f2xx_hal_flash.o
 .text.HAL_FLASH_Program
                0x00000000       0xa8 build/stm32f2xx_hal_flash.o
 .text.HAL_FLASH_Program_IT
                0x00000000       0x9c build/stm32f2xx_hal_flash.o
 .text.HAL_FLASH_IRQHandler
                0x00000000      0x140 build/stm32f2xx_hal_flash.o
 .text.HAL_FLASH_EndOfOperationCallback
                0x00000000       0x12 build/stm32f2xx_hal_flash.o
 .text.HAL_FLASH_OperationErrorCallback
                0x00000000       0x12 build/stm32f2xx_hal_flash.o
 .text.HAL_FLASH_Unlock
                0x00000000       0x44 build/stm32f2xx_hal_flash.o
 .text.HAL_FLASH_Lock
                0x00000000       0x20 build/stm32f2xx_hal_flash.o
 .text.HAL_FLASH_OB_Unlock
                0x00000000       0x38 build/stm32f2xx_hal_flash.o
 .text.HAL_FLASH_OB_Lock
                0x00000000       0x20 build/stm32f2xx_hal_flash.o
 .text.HAL_FLASH_OB_Launch
                0x00000000       0x28 build/stm32f2xx_hal_flash.o
 .text.HAL_FLASH_GetError
                0x00000000       0x14 build/stm32f2xx_hal_flash.o
 .text.FLASH_WaitForLastOperation
                0x00000000       0x80 build/stm32f2xx_hal_flash.o
 .text.FLASH_Program_DoubleWord
                0x00000000       0x64 build/stm32f2xx_hal_flash.o
 .text.FLASH_Program_Word
                0x00000000       0x44 build/stm32f2xx_hal_flash.o
 .text.FLASH_Program_HalfWord
                0x00000000       0x44 build/stm32f2xx_hal_flash.o
 .text.FLASH_Program_Byte
                0x00000000       0x40 build/stm32f2xx_hal_flash.o
 .text.FLASH_SetErrorCode
                0x00000000       0xac build/stm32f2xx_hal_flash.o
 .debug_info    0x00000000      0x605 build/stm32f2xx_hal_flash.o
 .debug_abbrev  0x00000000      0x23c build/stm32f2xx_hal_flash.o
 .debug_loc     0x00000000      0x544 build/stm32f2xx_hal_flash.o
 .debug_aranges
                0x00000000       0xa0 build/stm32f2xx_hal_flash.o
 .debug_ranges  0x00000000       0x90 build/stm32f2xx_hal_flash.o
 .debug_line    0x00000000      0x51a build/stm32f2xx_hal_flash.o
 .debug_str     0x00000000      0x4ea build/stm32f2xx_hal_flash.o
 .comment       0x00000000       0x4a build/stm32f2xx_hal_flash.o
 .debug_frame   0x00000000      0x274 build/stm32f2xx_hal_flash.o
 .ARM.attributes
                0x00000000       0x2d build/stm32f2xx_hal_flash.o
 .text          0x00000000        0x0 build/stm32f2xx_hal_flash_ex.o
 .data          0x00000000        0x0 build/stm32f2xx_hal_flash_ex.o
 .bss           0x00000000        0x0 build/stm32f2xx_hal_flash_ex.o
 .text.HAL_FLASHEx_Erase
                0x00000000       0xe0 build/stm32f2xx_hal_flash_ex.o
 .text.HAL_FLASHEx_Erase_IT
                0x00000000       0xac build/stm32f2xx_hal_flash_ex.o
 .text.HAL_FLASHEx_OBProgram
                0x00000000       0xdc build/stm32f2xx_hal_flash_ex.o
 .text.HAL_FLASHEx_OBGetConfig
                0x00000000       0x46 build/stm32f2xx_hal_flash_ex.o
 .text.FLASH_Erase_Sector
                0x00000000       0xa4 build/stm32f2xx_hal_flash_ex.o
 .text.FLASH_FlushCaches
                0x00000000       0x88 build/stm32f2xx_hal_flash_ex.o
 .text.FLASH_MassErase
                0x00000000       0x44 build/stm32f2xx_hal_flash_ex.o
 .text.FLASH_OB_EnableWRP
                0x00000000       0x44 build/stm32f2xx_hal_flash_ex.o
 .text.FLASH_OB_DisableWRP
                0x00000000       0x40 build/stm32f2xx_hal_flash_ex.o
 .text.FLASH_OB_RDP_LevelConfig
                0x00000000       0x34 build/stm32f2xx_hal_flash_ex.o
 .text.FLASH_OB_UserConfig
                0x00000000       0x60 build/stm32f2xx_hal_flash_ex.o
 .text.FLASH_OB_BOR_LevelConfig
                0x00000000       0x3c build/stm32f2xx_hal_flash_ex.o
 .text.FLASH_OB_GetUser
                0x00000000       0x1c build/stm32f2xx_hal_flash_ex.o
 .text.FLASH_OB_GetWRP
                0x00000000       0x18 build/stm32f2xx_hal_flash_ex.o
 .text.FLASH_OB_GetRDP
                0x00000000       0x40 build/stm32f2xx_hal_flash_ex.o
 .text.FLASH_OB_GetBOR
                0x00000000       0x1c build/stm32f2xx_hal_flash_ex.o
 .debug_info    0x00000000      0x770 build/stm32f2xx_hal_flash_ex.o
 .debug_abbrev  0x00000000      0x275 build/stm32f2xx_hal_flash_ex.o
 .debug_loc     0x00000000      0x500 build/stm32f2xx_hal_flash_ex.o
 .debug_aranges
                0x00000000       0x98 build/stm32f2xx_hal_flash_ex.o
 .debug_ranges  0x00000000       0x88 build/stm32f2xx_hal_flash_ex.o
 .debug_line    0x00000000      0x56b build/stm32f2xx_hal_flash_ex.o
 .debug_str     0x00000000      0x564 build/stm32f2xx_hal_flash_ex.o
 .comment       0x00000000       0x4a build/stm32f2xx_hal_flash_ex.o
 .debug_frame   0x00000000      0x250 build/stm32f2xx_hal_flash_ex.o
 .ARM.attributes
                0x00000000       0x2d build/stm32f2xx_hal_flash_ex.o
 .text          0x00000000        0x0 build/stm32f2xx_hal_pwr.o
 .data          0x00000000        0x0 build/stm32f2xx_hal_pwr.o
 .bss           0x00000000        0x0 build/stm32f2xx_hal_pwr.o
 .text.HAL_PWR_DeInit
                0x00000000       0x28 build/stm32f2xx_hal_pwr.o
 .text.HAL_PWR_EnableBkUpAccess
                0x00000000       0x36 build/stm32f2xx_hal_pwr.o
 .text.HAL_PWR_DisableBkUpAccess
                0x00000000       0x36 build/stm32f2xx_hal_pwr.o
 .text.HAL_PWR_ConfigPVD
                0x00000000       0xbc build/stm32f2xx_hal_pwr.o
 .text.HAL_PWR_EnablePVD
                0x00000000       0x34 build/stm32f2xx_hal_pwr.o
 .text.HAL_PWR_DisablePVD
                0x00000000       0x34 build/stm32f2xx_hal_pwr.o
 .text.HAL_PWR_EnableWakeUpPin
                0x00000000       0x24 build/stm32f2xx_hal_pwr.o
 .text.HAL_PWR_DisableWakeUpPin
                0x00000000       0x24 build/stm32f2xx_hal_pwr.o
 .text.HAL_PWR_EnterSLEEPMode
                0x00000000       0x38 build/stm32f2xx_hal_pwr.o
 .text.HAL_PWR_EnterSTOPMode
                0x00000000       0x58 build/stm32f2xx_hal_pwr.o
 .text.HAL_PWR_EnterSTANDBYMode
                0x00000000       0x30 build/stm32f2xx_hal_pwr.o
 .text.HAL_PWR_PVD_IRQHandler
                0x00000000       0x24 build/stm32f2xx_hal_pwr.o
 .text.HAL_PWR_PVDCallback
                0x00000000        0xc build/stm32f2xx_hal_pwr.o
 .text.HAL_PWR_EnableSleepOnExit
                0x00000000       0x1c build/stm32f2xx_hal_pwr.o
 .text.HAL_PWR_DisableSleepOnExit
                0x00000000       0x1c build/stm32f2xx_hal_pwr.o
 .text.HAL_PWR_EnableSEVOnPend
                0x00000000       0x1c build/stm32f2xx_hal_pwr.o
 .text.HAL_PWR_DisableSEVOnPend
                0x00000000       0x1c build/stm32f2xx_hal_pwr.o
 .debug_info    0x00000000      0x899 build/stm32f2xx_hal_pwr.o
 .debug_abbrev  0x00000000      0x1f6 build/stm32f2xx_hal_pwr.o
 .debug_loc     0x00000000      0x544 build/stm32f2xx_hal_pwr.o
 .debug_aranges
                0x00000000       0xa0 build/stm32f2xx_hal_pwr.o
 .debug_ranges  0x00000000       0x90 build/stm32f2xx_hal_pwr.o
 .debug_line    0x00000000      0x3d9 build/stm32f2xx_hal_pwr.o
 .debug_str     0x00000000      0x523 build/stm32f2xx_hal_pwr.o
 .comment       0x00000000       0x4a build/stm32f2xx_hal_pwr.o
 .debug_frame   0x00000000      0x274 build/stm32f2xx_hal_pwr.o
 .ARM.attributes
                0x00000000       0x2d build/stm32f2xx_hal_pwr.o
 .text          0x00000000        0x0 build/stm32f2xx_hal_pwr_ex.o
 .data          0x00000000        0x0 build/stm32f2xx_hal_pwr_ex.o
 .bss           0x00000000        0x0 build/stm32f2xx_hal_pwr_ex.o
 .text.HAL_PWREx_EnableBkUpReg
                0x00000000       0x68 build/stm32f2xx_hal_pwr_ex.o
 .text.HAL_PWREx_DisableBkUpReg
                0x00000000       0x68 build/stm32f2xx_hal_pwr_ex.o
 .text.HAL_PWREx_EnableFlashPowerDown
                0x00000000       0x36 build/stm32f2xx_hal_pwr_ex.o
 .text.HAL_PWREx_DisableFlashPowerDown
                0x00000000       0x36 build/stm32f2xx_hal_pwr_ex.o
 .debug_info    0x00000000      0x290 build/stm32f2xx_hal_pwr_ex.o
 .debug_abbrev  0x00000000      0x135 build/stm32f2xx_hal_pwr_ex.o
 .debug_loc     0x00000000      0x158 build/stm32f2xx_hal_pwr_ex.o
 .debug_aranges
                0x00000000       0x38 build/stm32f2xx_hal_pwr_ex.o
 .debug_ranges  0x00000000       0x28 build/stm32f2xx_hal_pwr_ex.o
 .debug_line    0x00000000      0x288 build/stm32f2xx_hal_pwr_ex.o
 .debug_str     0x00000000      0x298 build/stm32f2xx_hal_pwr_ex.o
 .comment       0x00000000       0x4a build/stm32f2xx_hal_pwr_ex.o
 .debug_frame   0x00000000       0xa8 build/stm32f2xx_hal_pwr_ex.o
 .ARM.attributes
                0x00000000       0x2d build/stm32f2xx_hal_pwr_ex.o
 .text          0x00000000        0x0 build/stm32f2xx_hal_gpio.o
 .data          0x00000000        0x0 build/stm32f2xx_hal_gpio.o
 .bss           0x00000000        0x0 build/stm32f2xx_hal_gpio.o
 .text.HAL_GPIO_DeInit
                0x00000000      0x1fc build/stm32f2xx_hal_gpio.o
 .text.HAL_GPIO_ReadPin
                0x00000000       0x2e build/stm32f2xx_hal_gpio.o
 .text.HAL_GPIO_TogglePin
                0x00000000       0x32 build/stm32f2xx_hal_gpio.o
 .text.HAL_GPIO_LockPin
                0x00000000       0x4e build/stm32f2xx_hal_gpio.o
 .text.HAL_GPIO_EXTI_IRQHandler
                0x00000000       0x30 build/stm32f2xx_hal_gpio.o
 .text.HAL_GPIO_EXTI_Callback
                0x00000000       0x14 build/stm32f2xx_hal_gpio.o
 .text          0x00000000        0x0 build/stm32f2xx_hal_dma.o
 .data          0x00000000        0x0 build/stm32f2xx_hal_dma.o
 .bss           0x00000000        0x0 build/stm32f2xx_hal_dma.o
 .text.HAL_DMA_Init
                0x00000000      0x15c build/stm32f2xx_hal_dma.o
 .text.HAL_DMA_DeInit
                0x00000000       0xbc build/stm32f2xx_hal_dma.o
 .text.HAL_DMA_Start
                0x00000000       0x76 build/stm32f2xx_hal_dma.o
 .text.HAL_DMA_Start_IT
                0x00000000       0xb0 build/stm32f2xx_hal_dma.o
 .text.HAL_DMA_PollForTransfer
                0x00000000      0x1be build/stm32f2xx_hal_dma.o
 .text.HAL_DMA_IRQHandler
                0x00000000      0x314 build/stm32f2xx_hal_dma.o
 .text.HAL_DMA_RegisterCallback
                0x00000000       0xa4 build/stm32f2xx_hal_dma.o
 .text.HAL_DMA_UnRegisterCallback
                0x00000000       0xd0 build/stm32f2xx_hal_dma.o
 .text.HAL_DMA_GetState
                0x00000000       0x1a build/stm32f2xx_hal_dma.o
 .text.HAL_DMA_GetError
                0x00000000       0x16 build/stm32f2xx_hal_dma.o
 .text.DMA_SetConfig
                0x00000000       0x5a build/stm32f2xx_hal_dma.o
 .text.DMA_CalcBaseAndBitshift
                0x00000000       0x68 build/stm32f2xx_hal_dma.o
 .text.DMA_CheckFifoParam
                0x00000000       0xf4 build/stm32f2xx_hal_dma.o
 .rodata.flagBitshiftOffset.0
                0x00000000        0x8 build/stm32f2xx_hal_dma.o
 .text          0x00000000        0x0 build/stm32f2xx_hal_dma_ex.o
 .data          0x00000000        0x0 build/stm32f2xx_hal_dma_ex.o
 .bss           0x00000000        0x0 build/stm32f2xx_hal_dma_ex.o
 .text.HAL_DMAEx_MultiBufferStart
                0x00000000       0x96 build/stm32f2xx_hal_dma_ex.o
 .text.HAL_DMAEx_MultiBufferStart_IT
                0x00000000     0x1290 build/stm32f2xx_hal_dma_ex.o
 .text.HAL_DMAEx_ChangeMemory
                0x00000000       0x32 build/stm32f2xx_hal_dma_ex.o
 .text.DMA_MultiBufferSetConfig
                0x00000000       0x4a build/stm32f2xx_hal_dma_ex.o
 .debug_info    0x00000000      0x59d build/stm32f2xx_hal_dma_ex.o
 .debug_abbrev  0x00000000      0x194 build/stm32f2xx_hal_dma_ex.o
 .debug_loc     0x00000000      0x158 build/stm32f2xx_hal_dma_ex.o
 .debug_aranges
                0x00000000       0x38 build/stm32f2xx_hal_dma_ex.o
 .debug_ranges  0x00000000       0x28 build/stm32f2xx_hal_dma_ex.o
 .debug_line    0x00000000      0xe0b build/stm32f2xx_hal_dma_ex.o
 .debug_str     0x00000000      0x521 build/stm32f2xx_hal_dma_ex.o
 .comment       0x00000000       0x4a build/stm32f2xx_hal_dma_ex.o
 .debug_frame   0x00000000       0xac build/stm32f2xx_hal_dma_ex.o
 .ARM.attributes
                0x00000000       0x2d build/stm32f2xx_hal_dma_ex.o
 .text          0x00000000        0x0 build/stm32f2xx_hal_exti.o
 .data          0x00000000        0x0 build/stm32f2xx_hal_exti.o
 .bss           0x00000000        0x0 build/stm32f2xx_hal_exti.o
 .text.HAL_EXTI_SetConfigLine
                0x00000000      0x14c build/stm32f2xx_hal_exti.o
 .text.HAL_EXTI_GetConfigLine
                0x00000000       0xf0 build/stm32f2xx_hal_exti.o
 .text.HAL_EXTI_ClearConfigLine
                0x00000000       0xc0 build/stm32f2xx_hal_exti.o
 .text.HAL_EXTI_RegisterCallback
                0x00000000       0x32 build/stm32f2xx_hal_exti.o
 .text.HAL_EXTI_GetHandle
                0x00000000       0x26 build/stm32f2xx_hal_exti.o
 .text.HAL_EXTI_IRQHandler
                0x00000000       0x48 build/stm32f2xx_hal_exti.o
 .text.HAL_EXTI_GetPending
                0x00000000       0x40 build/stm32f2xx_hal_exti.o
 .text.HAL_EXTI_ClearPending
                0x00000000       0x30 build/stm32f2xx_hal_exti.o
 .text.HAL_EXTI_GenerateSWI
                0x00000000       0x2c build/stm32f2xx_hal_exti.o
 .debug_info    0x00000000      0x5a3 build/stm32f2xx_hal_exti.o
 .debug_abbrev  0x00000000      0x1b4 build/stm32f2xx_hal_exti.o
 .debug_loc     0x00000000      0x330 build/stm32f2xx_hal_exti.o
 .debug_aranges
                0x00000000       0x60 build/stm32f2xx_hal_exti.o
 .debug_ranges  0x00000000       0x50 build/stm32f2xx_hal_exti.o
 .debug_line    0x00000000      0x44b build/stm32f2xx_hal_exti.o
 .debug_str     0x00000000      0x3b9 build/stm32f2xx_hal_exti.o
 .comment       0x00000000       0x4a build/stm32f2xx_hal_exti.o
 .debug_frame   0x00000000      0x174 build/stm32f2xx_hal_exti.o
 .ARM.attributes
                0x00000000       0x2d build/stm32f2xx_hal_exti.o
 .text          0x00000000        0x0 build/stm32f2xx_hal_tim.o
 .data          0x00000000        0x0 build/stm32f2xx_hal_tim.o
 .bss           0x00000000        0x0 build/stm32f2xx_hal_tim.o
 .text.HAL_TIM_Base_DeInit
                0x00000000       0xa8 build/stm32f2xx_hal_tim.o
 .text.HAL_TIM_Base_MspDeInit
                0x00000000       0x12 build/stm32f2xx_hal_tim.o
 .text.HAL_TIM_Base_Start
                0x00000000       0xcc build/stm32f2xx_hal_tim.o
 .text.HAL_TIM_Base_Stop
                0x00000000       0x4c build/stm32f2xx_hal_tim.o
 .text.HAL_TIM_Base_Stop_IT
                0x00000000       0x5c build/stm32f2xx_hal_tim.o
 .text.HAL_TIM_Base_Start_DMA
                0x00000000      0x144 build/stm32f2xx_hal_tim.o
 .text.HAL_TIM_Base_Stop_DMA
                0x00000000       0x64 build/stm32f2xx_hal_tim.o
 .text.HAL_TIM_OC_Init
                0x00000000       0x9e build/stm32f2xx_hal_tim.o
 .text.HAL_TIM_OC_DeInit
                0x00000000       0xa8 build/stm32f2xx_hal_tim.o
 .text.HAL_TIM_OC_MspInit
                0x00000000       0x12 build/stm32f2xx_hal_tim.o
 .text.HAL_TIM_OC_MspDeInit
                0x00000000       0x12 build/stm32f2xx_hal_tim.o
 .text.HAL_TIM_OC_Start
                0x00000000      0x190 build/stm32f2xx_hal_tim.o
 .text.HAL_TIM_OC_Stop
                0x00000000       0xe0 build/stm32f2xx_hal_tim.o
 .text.HAL_TIM_OC_Start_IT
                0x00000000      0x21c build/stm32f2xx_hal_tim.o
 .text.HAL_TIM_OC_Stop_IT
                0x00000000      0x16c build/stm32f2xx_hal_tim.o
 .text.HAL_TIM_OC_Start_DMA
                0x00000000      0x380 build/stm32f2xx_hal_tim.o
 .text.HAL_TIM_OC_Stop_DMA
                0x00000000      0x194 build/stm32f2xx_hal_tim.o
 .text.HAL_TIM_PWM_Init
                0x00000000       0x9e build/stm32f2xx_hal_tim.o
 .text.HAL_TIM_PWM_DeInit
                0x00000000       0xa8 build/stm32f2xx_hal_tim.o
 .text.HAL_TIM_PWM_MspInit
                0x00000000       0x12 build/stm32f2xx_hal_tim.o
 .text.HAL_TIM_PWM_MspDeInit
                0x00000000       0x12 build/stm32f2xx_hal_tim.o
 .text.HAL_TIM_PWM_Start
                0x00000000      0x190 build/stm32f2xx_hal_tim.o
 .text.HAL_TIM_PWM_Stop
                0x00000000       0xe0 build/stm32f2xx_hal_tim.o
 .text.HAL_TIM_PWM_Start_IT
                0x00000000      0x21c build/stm32f2xx_hal_tim.o
 .text.HAL_TIM_PWM_Stop_IT
                0x00000000      0x16c build/stm32f2xx_hal_tim.o
 .text.HAL_TIM_PWM_Start_DMA
                0x00000000      0x380 build/stm32f2xx_hal_tim.o
 .text.HAL_TIM_PWM_Stop_DMA
                0x00000000      0x194 build/stm32f2xx_hal_tim.o
 .text.HAL_TIM_IC_Init
                0x00000000       0x9e build/stm32f2xx_hal_tim.o
 .text.HAL_TIM_IC_DeInit
                0x00000000       0xa8 build/stm32f2xx_hal_tim.o
 .text.HAL_TIM_IC_MspInit
                0x00000000       0x12 build/stm32f2xx_hal_tim.o
 .text.HAL_TIM_IC_MspDeInit
                0x00000000       0x12 build/stm32f2xx_hal_tim.o
 .text.HAL_TIM_IC_Start
                0x00000000      0x1b8 build/stm32f2xx_hal_tim.o
 .text.HAL_TIM_IC_Stop
                0x00000000       0xc2 build/stm32f2xx_hal_tim.o
 .text.HAL_TIM_IC_Start_IT
                0x00000000      0x244 build/stm32f2xx_hal_tim.o
 .text.HAL_TIM_IC_Stop_IT
                0x00000000      0x150 build/stm32f2xx_hal_tim.o
 .text.HAL_TIM_IC_Start_DMA
                0x00000000      0x34c build/stm32f2xx_hal_tim.o
 .text.HAL_TIM_IC_Stop_DMA
                0x00000000      0x174 build/stm32f2xx_hal_tim.o
 .text.HAL_TIM_OnePulse_Init
                0x00000000       0xa0 build/stm32f2xx_hal_tim.o
 .text.HAL_TIM_OnePulse_DeInit
                0x00000000       0x88 build/stm32f2xx_hal_tim.o
 .text.HAL_TIM_OnePulse_MspInit
                0x00000000       0x12 build/stm32f2xx_hal_tim.o
 .text.HAL_TIM_OnePulse_MspDeInit
                0x00000000       0x12 build/stm32f2xx_hal_tim.o
 .text.HAL_TIM_OnePulse_Start
                0x00000000       0xc4 build/stm32f2xx_hal_tim.o
 .text.HAL_TIM_OnePulse_Stop
                0x00000000       0xd8 build/stm32f2xx_hal_tim.o
 .text.HAL_TIM_OnePulse_Start_IT
                0x00000000       0xe4 build/stm32f2xx_hal_tim.o
 .text.HAL_TIM_OnePulse_Stop_IT
                0x00000000       0xf8 build/stm32f2xx_hal_tim.o
 .text.HAL_TIM_Encoder_Init
                0x00000000      0x14c build/stm32f2xx_hal_tim.o
 .text.HAL_TIM_Encoder_DeInit
                0x00000000       0x88 build/stm32f2xx_hal_tim.o
 .text.HAL_TIM_Encoder_MspInit
                0x00000000       0x12 build/stm32f2xx_hal_tim.o
 .text.HAL_TIM_Encoder_MspDeInit
                0x00000000       0x12 build/stm32f2xx_hal_tim.o
 .text.HAL_TIM_Encoder_Start
                0x00000000      0x11c build/stm32f2xx_hal_tim.o
 .text.HAL_TIM_Encoder_Stop
                0x00000000      0x12e build/stm32f2xx_hal_tim.o
 .text.HAL_TIM_Encoder_Start_IT
                0x00000000      0x15c build/stm32f2xx_hal_tim.o
 .text.HAL_TIM_Encoder_Stop_IT
                0x00000000      0x16a build/stm32f2xx_hal_tim.o
 .text.HAL_TIM_Encoder_Start_DMA
                0x00000000      0x2e8 build/stm32f2xx_hal_tim.o
 .text.HAL_TIM_Encoder_Stop_DMA
                0x00000000      0x192 build/stm32f2xx_hal_tim.o
 .text.HAL_TIM_OC_ConfigChannel
                0x00000000       0xb0 build/stm32f2xx_hal_tim.o
 .text.HAL_TIM_IC_ConfigChannel
                0x00000000      0x128 build/stm32f2xx_hal_tim.o
 .text.HAL_TIM_PWM_ConfigChannel
                0x00000000      0x17c build/stm32f2xx_hal_tim.o
 .text.HAL_TIM_OnePulse_ConfigChannel
                0x00000000      0x184 build/stm32f2xx_hal_tim.o
 .text.HAL_TIM_DMABurst_WriteStart
                0x00000000       0x30 build/stm32f2xx_hal_tim.o
 .text.HAL_TIM_DMABurst_MultiWriteStart
                0x00000000      0x29c build/stm32f2xx_hal_tim.o
 .text.HAL_TIM_DMABurst_WriteStop
                0x00000000       0xe6 build/stm32f2xx_hal_tim.o
 .text.HAL_TIM_DMABurst_ReadStart
                0x00000000       0x30 build/stm32f2xx_hal_tim.o
 .text.HAL_TIM_DMABurst_MultiReadStart
                0x00000000      0x29c build/stm32f2xx_hal_tim.o
 .text.HAL_TIM_DMABurst_ReadStop
                0x00000000       0xe6 build/stm32f2xx_hal_tim.o
 .text.HAL_TIM_GenerateEvent
                0x00000000       0x4c build/stm32f2xx_hal_tim.o
 .text.HAL_TIM_ConfigOCrefClear
                0x00000000      0x188 build/stm32f2xx_hal_tim.o
 .text.HAL_TIM_ConfigClockSource
                0x00000000      0x188 build/stm32f2xx_hal_tim.o
 .text.HAL_TIM_ConfigTI1Input
                0x00000000       0x36 build/stm32f2xx_hal_tim.o
 .text.HAL_TIM_SlaveConfigSynchro
                0x00000000       0x84 build/stm32f2xx_hal_tim.o
 .text.HAL_TIM_SlaveConfigSynchro_IT
                0x00000000       0x84 build/stm32f2xx_hal_tim.o
 .text.HAL_TIM_ReadCapturedValue
                0x00000000       0x88 build/stm32f2xx_hal_tim.o
 .text.HAL_TIM_PeriodElapsedCallback
                0x00000000       0x12 build/stm32f2xx_hal_tim.o
 .text.HAL_TIM_PeriodElapsedHalfCpltCallback
                0x00000000       0x12 build/stm32f2xx_hal_tim.o
 .text.HAL_TIM_IC_CaptureHalfCpltCallback
                0x00000000       0x12 build/stm32f2xx_hal_tim.o
 .text.HAL_TIM_PWM_PulseFinishedHalfCpltCallback
                0x00000000       0x12 build/stm32f2xx_hal_tim.o
 .text.HAL_TIM_TriggerHalfCpltCallback
                0x00000000       0x12 build/stm32f2xx_hal_tim.o
 .text.HAL_TIM_ErrorCallback
                0x00000000       0x12 build/stm32f2xx_hal_tim.o
 .text.HAL_TIM_Base_GetState
                0x00000000       0x1a build/stm32f2xx_hal_tim.o
 .text.HAL_TIM_OC_GetState
                0x00000000       0x1a build/stm32f2xx_hal_tim.o
 .text.HAL_TIM_PWM_GetState
                0x00000000       0x1a build/stm32f2xx_hal_tim.o
 .text.HAL_TIM_IC_GetState
                0x00000000       0x1a build/stm32f2xx_hal_tim.o
 .text.HAL_TIM_OnePulse_GetState
                0x00000000       0x1a build/stm32f2xx_hal_tim.o
 .text.HAL_TIM_Encoder_GetState
                0x00000000       0x1a build/stm32f2xx_hal_tim.o
 .text.HAL_TIM_GetActiveChannel
                0x00000000       0x16 build/stm32f2xx_hal_tim.o
 .text.HAL_TIM_GetChannelState
                0x00000000       0x50 build/stm32f2xx_hal_tim.o
 .text.HAL_TIM_DMABurstState
                0x00000000       0x1a build/stm32f2xx_hal_tim.o
 .text.TIM_DMAError
                0x00000000       0x92 build/stm32f2xx_hal_tim.o
 .text.TIM_DMADelayPulseCplt
                0x00000000       0xa8 build/stm32f2xx_hal_tim.o
 .text.TIM_DMADelayPulseHalfCplt
                0x00000000       0x68 build/stm32f2xx_hal_tim.o
 .text.TIM_DMACaptureCplt
                0x00000000       0xc8 build/stm32f2xx_hal_tim.o
 .text.TIM_DMACaptureHalfCplt
                0x00000000       0x68 build/stm32f2xx_hal_tim.o
 .text.TIM_DMAPeriodElapsedCplt
                0x00000000       0x2e build/stm32f2xx_hal_tim.o
 .text.TIM_DMAPeriodElapsedHalfCplt
                0x00000000       0x1c build/stm32f2xx_hal_tim.o
 .text.TIM_DMATriggerCplt
                0x00000000       0x2e build/stm32f2xx_hal_tim.o
 .text.TIM_DMATriggerHalfCplt
                0x00000000       0x1c build/stm32f2xx_hal_tim.o
 .text.TIM_OC1_SetConfig
                0x00000000       0xe0 build/stm32f2xx_hal_tim.o
 .text.TIM_OC2_SetConfig
                0x00000000       0xe8 build/stm32f2xx_hal_tim.o
 .text.TIM_OC3_SetConfig
                0x00000000       0xe8 build/stm32f2xx_hal_tim.o
 .text.TIM_OC4_SetConfig
                0x00000000       0xa8 build/stm32f2xx_hal_tim.o
 .text.TIM_SlaveTimer_SetConfig
                0x00000000      0x11c build/stm32f2xx_hal_tim.o
 .text.TIM_TI1_SetConfig
                0x00000000       0xe4 build/stm32f2xx_hal_tim.o
 .text.TIM_TI1_ConfigInputStage
                0x00000000       0x5c build/stm32f2xx_hal_tim.o
 .text.TIM_TI2_SetConfig
                0x00000000       0x78 build/stm32f2xx_hal_tim.o
 .text.TIM_TI2_ConfigInputStage
                0x00000000       0x5e build/stm32f2xx_hal_tim.o
 .text.TIM_TI3_SetConfig
                0x00000000       0x76 build/stm32f2xx_hal_tim.o
 .text.TIM_TI4_SetConfig
                0x00000000       0x78 build/stm32f2xx_hal_tim.o
 .text.TIM_ITRx_SetConfig
                0x00000000       0x34 build/stm32f2xx_hal_tim.o
 .text.TIM_ETR_SetConfig
                0x00000000       0x3e build/stm32f2xx_hal_tim.o
 .text.TIM_CCxChannelCmd
                0x00000000       0x48 build/stm32f2xx_hal_tim.o
 .text          0x00000000        0x0 build/stm32f2xx_hal_tim_ex.o
 .data          0x00000000        0x0 build/stm32f2xx_hal_tim_ex.o
 .bss           0x00000000        0x0 build/stm32f2xx_hal_tim_ex.o
 .text.HAL_TIMEx_HallSensor_Init
                0x00000000      0x152 build/stm32f2xx_hal_tim_ex.o
 .text.HAL_TIMEx_HallSensor_DeInit
                0x00000000       0x88 build/stm32f2xx_hal_tim_ex.o
 .text.HAL_TIMEx_HallSensor_MspInit
                0x00000000       0x12 build/stm32f2xx_hal_tim_ex.o
 .text.HAL_TIMEx_HallSensor_MspDeInit
                0x00000000       0x12 build/stm32f2xx_hal_tim_ex.o
 .text.HAL_TIMEx_HallSensor_Start
                0x00000000      0x11c build/stm32f2xx_hal_tim_ex.o
 .text.HAL_TIMEx_HallSensor_Stop
                0x00000000       0x70 build/stm32f2xx_hal_tim_ex.o
 .text.HAL_TIMEx_HallSensor_Start_IT
                0x00000000      0x12c build/stm32f2xx_hal_tim_ex.o
 .text.HAL_TIMEx_HallSensor_Stop_IT
                0x00000000       0x80 build/stm32f2xx_hal_tim_ex.o
 .text.HAL_TIMEx_HallSensor_Start_DMA
                0x00000000      0x16c build/stm32f2xx_hal_tim_ex.o
 .text.HAL_TIMEx_HallSensor_Stop_DMA
                0x00000000       0x7a build/stm32f2xx_hal_tim_ex.o
 .text.HAL_TIMEx_OCN_Start
                0x00000000      0x174 build/stm32f2xx_hal_tim_ex.o
 .text.HAL_TIMEx_OCN_Stop
                0x00000000       0xba build/stm32f2xx_hal_tim_ex.o
 .text.HAL_TIMEx_OCN_Start_IT
                0x00000000      0x1d4 build/stm32f2xx_hal_tim_ex.o
 .text.HAL_TIMEx_OCN_Stop_IT
                0x00000000      0x130 build/stm32f2xx_hal_tim_ex.o
 .text.HAL_TIMEx_OCN_Start_DMA
                0x00000000      0x2f0 build/stm32f2xx_hal_tim_ex.o
 .text.HAL_TIMEx_OCN_Stop_DMA
                0x00000000      0x12a build/stm32f2xx_hal_tim_ex.o
 .text.HAL_TIMEx_PWMN_Start
                0x00000000      0x174 build/stm32f2xx_hal_tim_ex.o
 .text.HAL_TIMEx_PWMN_Stop
                0x00000000       0xba build/stm32f2xx_hal_tim_ex.o
 .text.HAL_TIMEx_PWMN_Start_IT
                0x00000000      0x1d4 build/stm32f2xx_hal_tim_ex.o
 .text.HAL_TIMEx_PWMN_Stop_IT
                0x00000000      0x130 build/stm32f2xx_hal_tim_ex.o
 .text.HAL_TIMEx_PWMN_Start_DMA
                0x00000000      0x2f0 build/stm32f2xx_hal_tim_ex.o
 .text.HAL_TIMEx_PWMN_Stop_DMA
                0x00000000      0x12a build/stm32f2xx_hal_tim_ex.o
 .text.HAL_TIMEx_OnePulseN_Start
                0x00000000       0xaa build/stm32f2xx_hal_tim_ex.o
 .text.HAL_TIMEx_OnePulseN_Stop
                0x00000000       0xbe build/stm32f2xx_hal_tim_ex.o
 .text.HAL_TIMEx_OnePulseN_Start_IT
                0x00000000       0xca build/stm32f2xx_hal_tim_ex.o
 .text.HAL_TIMEx_OnePulseN_Stop_IT
                0x00000000       0xde build/stm32f2xx_hal_tim_ex.o
 .text.HAL_TIMEx_ConfigCommutEvent
                0x00000000       0xbe build/stm32f2xx_hal_tim_ex.o
 .text.HAL_TIMEx_ConfigCommutEvent_IT
                0x00000000       0xbe build/stm32f2xx_hal_tim_ex.o
 .text.HAL_TIMEx_ConfigCommutEvent_DMA
                0x00000000       0xe4 build/stm32f2xx_hal_tim_ex.o
 .text.HAL_TIMEx_MasterConfigSynchronization
                0x00000000       0xf4 build/stm32f2xx_hal_tim_ex.o
 .text.HAL_TIMEx_ConfigBreakDeadTime
                0x00000000       0xa2 build/stm32f2xx_hal_tim_ex.o
 .text.HAL_TIMEx_RemapConfig
                0x00000000       0x3c build/stm32f2xx_hal_tim_ex.o
 .text.HAL_TIMEx_CommutHalfCpltCallback
                0x00000000       0x12 build/stm32f2xx_hal_tim_ex.o
 .text.HAL_TIMEx_HallSensor_GetState
                0x00000000       0x1a build/stm32f2xx_hal_tim_ex.o
 .text.HAL_TIMEx_GetChannelNState
                0x00000000       0x50 build/stm32f2xx_hal_tim_ex.o
 .text.TIMEx_DMACommutationCplt
                0x00000000       0x24 build/stm32f2xx_hal_tim_ex.o
 .text.TIMEx_DMACommutationHalfCplt
                0x00000000       0x24 build/stm32f2xx_hal_tim_ex.o
 .text.TIM_DMADelayPulseNCplt
                0x00000000       0xa8 build/stm32f2xx_hal_tim_ex.o
 .text.TIM_DMAErrorCCxN
                0x00000000       0x6e build/stm32f2xx_hal_tim_ex.o
 .text.TIM_CCxNChannelCmd
                0x00000000       0x48 build/stm32f2xx_hal_tim_ex.o
 .text          0x00000000        0x0 build/stm32f2xx_hal_uart.o
 .data          0x00000000        0x0 build/stm32f2xx_hal_uart.o
 .bss           0x00000000        0x0 build/stm32f2xx_hal_uart.o
 .text.HAL_HalfDuplex_Init
                0x00000000       0xaa build/stm32f2xx_hal_uart.o
 .text.HAL_LIN_Init
                0x00000000       0xcc build/stm32f2xx_hal_uart.o
 .text.HAL_MultiProcessor_Init
                0x00000000       0xe0 build/stm32f2xx_hal_uart.o
 .text.HAL_UART_DeInit
                0x00000000       0x5e build/stm32f2xx_hal_uart.o
 .text.HAL_UART_MspInit
                0x00000000       0x12 build/stm32f2xx_hal_uart.o
 .text.HAL_UART_MspDeInit
                0x00000000       0x12 build/stm32f2xx_hal_uart.o
 .text.HAL_UART_Receive
                0x00000000      0x144 build/stm32f2xx_hal_uart.o
 .text.HAL_UART_Transmit_IT
                0x00000000       0x88 build/stm32f2xx_hal_uart.o
 .text.HAL_UART_Transmit_DMA
                0x00000000       0xd8 build/stm32f2xx_hal_uart.o
 .text.HAL_UART_Receive_DMA
                0x00000000       0x60 build/stm32f2xx_hal_uart.o
 .text.HAL_UART_DMAPause
                0x00000000       0xc6 build/stm32f2xx_hal_uart.o
 .text.HAL_UART_DMAResume
                0x00000000       0xa0 build/stm32f2xx_hal_uart.o
 .text.HAL_UART_DMAStop
                0x00000000       0xb6 build/stm32f2xx_hal_uart.o
 .text.HAL_UARTEx_ReceiveToIdle
                0x00000000      0x1ba build/stm32f2xx_hal_uart.o
 .text.HAL_UARTEx_ReceiveToIdle_IT
                0x00000000       0x9e build/stm32f2xx_hal_uart.o
 .text.HAL_UARTEx_ReceiveToIdle_DMA
                0x00000000       0x9e build/stm32f2xx_hal_uart.o
 .text.HAL_UART_Abort
                0x00000000      0x122 build/stm32f2xx_hal_uart.o
 .text.HAL_UART_AbortTransmit
                0x00000000       0x88 build/stm32f2xx_hal_uart.o
 .text.HAL_UART_AbortReceive
                0x00000000       0xb6 build/stm32f2xx_hal_uart.o
 .text.HAL_UART_Abort_IT
                0x00000000      0x168 build/stm32f2xx_hal_uart.o
 .text.HAL_UART_AbortTransmit_IT
                0x00000000       0xa0 build/stm32f2xx_hal_uart.o
 .text.HAL_UART_AbortReceive_IT
                0x00000000       0xd4 build/stm32f2xx_hal_uart.o
 .text.HAL_UART_TxHalfCpltCallback
                0x00000000       0x12 build/stm32f2xx_hal_uart.o
 .text.HAL_UART_RxCpltCallback
                0x00000000       0x12 build/stm32f2xx_hal_uart.o
 .text.HAL_UART_RxHalfCpltCallback
                0x00000000       0x12 build/stm32f2xx_hal_uart.o
 .text.HAL_UART_AbortCpltCallback
                0x00000000       0x12 build/stm32f2xx_hal_uart.o
 .text.HAL_UART_AbortTransmitCpltCallback
                0x00000000       0x12 build/stm32f2xx_hal_uart.o
 .text.HAL_UART_AbortReceiveCpltCallback
                0x00000000       0x12 build/stm32f2xx_hal_uart.o
 .text.HAL_LIN_SendBreak
                0x00000000       0x52 build/stm32f2xx_hal_uart.o
 .text.HAL_MultiProcessor_EnterMuteMode
                0x00000000       0x52 build/stm32f2xx_hal_uart.o
 .text.HAL_MultiProcessor_ExitMuteMode
                0x00000000       0x52 build/stm32f2xx_hal_uart.o
 .text.HAL_HalfDuplex_EnableTransmitter
                0x00000000       0x66 build/stm32f2xx_hal_uart.o
 .text.HAL_HalfDuplex_EnableReceiver
                0x00000000       0x66 build/stm32f2xx_hal_uart.o
 .text.HAL_UART_GetState
                0x00000000       0x3a build/stm32f2xx_hal_uart.o
 .text.HAL_UART_GetError
                0x00000000       0x16 build/stm32f2xx_hal_uart.o
 .text.UART_DMATransmitCplt
                0x00000000       0x52 build/stm32f2xx_hal_uart.o
 .text.UART_DMATxHalfCplt
                0x00000000       0x1c build/stm32f2xx_hal_uart.o
 .text.UART_DMAReceiveCplt
                0x00000000       0x96 build/stm32f2xx_hal_uart.o
 .text.UART_DMARxHalfCplt
                0x00000000       0x36 build/stm32f2xx_hal_uart.o
 .text.UART_DMAError
                0x00000000       0x94 build/stm32f2xx_hal_uart.o
 .text.UART_Start_Receive_DMA
                0x00000000       0xc8 build/stm32f2xx_hal_uart.o
 .text.UART_EndTxTransfer
                0x00000000       0x2a build/stm32f2xx_hal_uart.o
 .text.UART_DMATxAbortCallback
                0x00000000       0x60 build/stm32f2xx_hal_uart.o
 .text.UART_DMARxAbortCallback
                0x00000000       0x60 build/stm32f2xx_hal_uart.o
 .text.UART_DMATxOnlyAbortCallback
                0x00000000       0x2a build/stm32f2xx_hal_uart.o
 .text.UART_DMARxOnlyAbortCallback
                0x00000000       0x30 build/stm32f2xx_hal_uart.o
 .text          0x00000000        0x0 build/system_stm32f2xx.o
 .data          0x00000000        0x0 build/system_stm32f2xx.o
 .bss           0x00000000        0x0 build/system_stm32f2xx.o
 .text.SystemCoreClockUpdate
                0x00000000      0x100 build/system_stm32f2xx.o
 .text          0x00000000        0x0 build/croutine.o
 .data          0x00000000        0x0 build/croutine.o
 .bss           0x00000000        0x0 build/croutine.o
 .debug_info    0x00000000       0x72 build/croutine.o
 .debug_abbrev  0x00000000       0x26 build/croutine.o
 .debug_aranges
                0x00000000       0x18 build/croutine.o
 .debug_line    0x00000000       0x1d build/croutine.o
 .debug_str     0x00000000      0x18b build/croutine.o
 .comment       0x00000000       0x4a build/croutine.o
 .ARM.attributes
                0x00000000       0x2d build/croutine.o
 .text          0x00000000        0x0 build/event_groups.o
 .data          0x00000000        0x0 build/event_groups.o
 .bss           0x00000000        0x0 build/event_groups.o
 .text.xEventGroupCreateStatic
                0x00000000       0x6e build/event_groups.o
 .text.xEventGroupCreate
                0x00000000       0x34 build/event_groups.o
 .text.xEventGroupSync
                0x00000000      0x15c build/event_groups.o
 .text.xEventGroupWaitBits
                0x00000000      0x19c build/event_groups.o
 .text.xEventGroupClearBits
                0x00000000       0x70 build/event_groups.o
 .text.xEventGroupClearBitsFromISR
                0x00000000       0x28 build/event_groups.o
 .text.xEventGroupGetBitsFromISR
                0x00000000       0x46 build/event_groups.o
 .text.xEventGroupSetBits
                0x00000000      0x116 build/event_groups.o
 .text.vEventGroupDelete
                0x00000000       0x6a build/event_groups.o
 .text.vEventGroupSetBitsCallback
                0x00000000       0x1a build/event_groups.o
 .text.vEventGroupClearBitsCallback
                0x00000000       0x1a build/event_groups.o
 .text.prvTestWaitCondition
                0x00000000       0x42 build/event_groups.o
 .text.xEventGroupSetBitsFromISR
                0x00000000       0x28 build/event_groups.o
 .text.uxEventGroupGetNumber
                0x00000000       0x2a build/event_groups.o
 .text.vEventGroupSetNumber
                0x00000000       0x1a build/event_groups.o
 .debug_info    0x00000000      0xbc4 build/event_groups.o
 .debug_abbrev  0x00000000      0x26c build/event_groups.o
 .debug_loc     0x00000000      0x4e4 build/event_groups.o
 .debug_aranges
                0x00000000       0x90 build/event_groups.o
 .debug_ranges  0x00000000       0x80 build/event_groups.o
 .debug_line    0x00000000      0x6bc build/event_groups.o
 .debug_str     0x00000000      0x6fd build/event_groups.o
 .comment       0x00000000       0x4a build/event_groups.o
 .debug_frame   0x00000000      0x23c build/event_groups.o
 .ARM.attributes
                0x00000000       0x2d build/event_groups.o
 .text          0x00000000        0x0 build/list.o
 .data          0x00000000        0x0 build/list.o
 .bss           0x00000000        0x0 build/list.o
 .text          0x00000000        0x0 build/queue.o
 .data          0x00000000        0x0 build/queue.o
 .bss           0x00000000        0x0 build/queue.o
 .text.xQueueGetMutexHolder
                0x00000000       0x2e build/queue.o
 .text.xQueueGetMutexHolderFromISR
                0x00000000       0x44 build/queue.o
 .text.xQueuePeek
                0x00000000      0x1c4 build/queue.o
 .text.xQueuePeekFromISR
                0x00000000       0xd2 build/queue.o
 .text.uxQueueMessagesWaiting
                0x00000000       0x3c build/queue.o
 .text.uxQueueSpacesAvailable
                0x00000000       0x46 build/queue.o
 .text.uxQueueMessagesWaitingFromISR
                0x00000000       0x36 build/queue.o
 .text.uxQueueGetQueueNumber
                0x00000000       0x16 build/queue.o
 .text.vQueueSetQueueNumber
                0x00000000       0x1a build/queue.o
 .text.ucQueueGetQueueType
                0x00000000       0x18 build/queue.o
 .text.xQueueIsQueueEmptyFromISR
                0x00000000       0x42 build/queue.o
 .text.xQueueIsQueueFullFromISR
                0x00000000       0x46 build/queue.o
 .text.pcQueueGetName
                0x00000000       0x4c build/queue.o
 .text          0x00000000        0x0 build/stream_buffer.o
 .data          0x00000000        0x0 build/stream_buffer.o
 .bss           0x00000000        0x0 build/stream_buffer.o
 .text.xStreamBufferGenericCreate
                0x00000000       0x86 build/stream_buffer.o
 .text.xStreamBufferGenericCreateStatic
                0x00000000       0xec build/stream_buffer.o
 .text.vStreamBufferDelete
                0x00000000       0x4e build/stream_buffer.o
 .text.xStreamBufferReset
                0x00000000       0x84 build/stream_buffer.o
 .text.xStreamBufferSetTriggerLevel
                0x00000000       0x5a build/stream_buffer.o
 .text.xStreamBufferSpacesAvailable
                0x00000000       0x64 build/stream_buffer.o
 .text.xStreamBufferBytesAvailable
                0x00000000       0x3a build/stream_buffer.o
 .text.xStreamBufferSend
                0x00000000      0x14e build/stream_buffer.o
 .text.xStreamBufferSendFromISR
                0x00000000       0xe2 build/stream_buffer.o
 .text.prvWriteMessageToBuffer
                0x00000000       0x7a build/stream_buffer.o
 .text.xStreamBufferReceive
                0x00000000      0x12c build/stream_buffer.o
 .text.xStreamBufferReceiveFromISR
                0x00000000       0xde build/stream_buffer.o
 .text.prvReadMessageFromBuffer
                0x00000000       0x60 build/stream_buffer.o
 .text.xStreamBufferIsEmpty
                0x00000000       0x4e build/stream_buffer.o
 .text.xStreamBufferIsFull
                0x00000000       0x60 build/stream_buffer.o
 .text.xStreamBufferSendCompletedFromISR
                0x00000000       0x86 build/stream_buffer.o
 .text.xStreamBufferReceiveCompletedFromISR
                0x00000000       0x86 build/stream_buffer.o
 .text.prvWriteBytesToBuffer
                0x00000000       0xe4 build/stream_buffer.o
 .text.prvReadBytesFromBuffer
                0x00000000       0xf4 build/stream_buffer.o
 .text.prvBytesInBuffer
                0x00000000       0x3e build/stream_buffer.o
 .text.prvInitialiseNewStreamBuffer
                0x00000000       0x72 build/stream_buffer.o
 .text.uxStreamBufferGetStreamBufferNumber
                0x00000000       0x16 build/stream_buffer.o
 .text.vStreamBufferSetStreamBufferNumber
                0x00000000       0x1a build/stream_buffer.o
 .text.ucStreamBufferGetStreamBufferType
                0x00000000       0x1c build/stream_buffer.o
 .debug_info    0x00000000     0x1291 build/stream_buffer.o
 .debug_abbrev  0x00000000      0x2cc build/stream_buffer.o
 .debug_loc     0x00000000      0x7dc build/stream_buffer.o
 .debug_aranges
                0x00000000       0xd8 build/stream_buffer.o
 .debug_ranges  0x00000000       0xc8 build/stream_buffer.o
 .debug_line    0x00000000      0xacb build/stream_buffer.o
 .debug_str     0x00000000      0x824 build/stream_buffer.o
 .comment       0x00000000       0x4a build/stream_buffer.o
 .debug_frame   0x00000000      0x3a0 build/stream_buffer.o
 .ARM.attributes
                0x00000000       0x2d build/stream_buffer.o
 .text          0x00000000        0x0 build/tasks.o
 .data          0x00000000        0x0 build/tasks.o
 .bss           0x00000000        0x0 build/tasks.o
 .text.vTaskDelete
                0x00000000       0xe4 build/tasks.o
 .text.vTaskDelayUntil
                0x00000000       0xfc build/tasks.o
 .text.eTaskGetState
                0x00000000       0xb4 build/tasks.o
 .text.uxTaskPriorityGet
                0x00000000       0x34 build/tasks.o
 .text.uxTaskPriorityGetFromISR
                0x00000000       0x58 build/tasks.o
 .text.vTaskPrioritySet
                0x00000000      0x144 build/tasks.o
 .text.vTaskSuspend
                0x00000000       0xec build/tasks.o
 .text.prvTaskIsTaskSuspended
                0x00000000       0x74 build/tasks.o
 .text.vTaskResume
                0x00000000       0xbc build/tasks.o
 .text.xTaskResumeFromISR
                0x00000000       0xe4 build/tasks.o
 .text.vTaskEndScheduler
                0x00000000       0x30 build/tasks.o
 .text.uxTaskGetNumberOfTasks
                0x00000000       0x14 build/tasks.o
 .text.pcTaskGetName
                0x00000000       0x48 build/tasks.o
 .text.uxTaskGetSystemState
                0x00000000      0x11c build/tasks.o
 .text.vTaskPlaceOnUnorderedEventList
                0x00000000       0x78 build/tasks.o
 .text.vTaskRemoveFromUnorderedEventList
                0x00000000       0xc4 build/tasks.o
 .text.vTaskSetTimeOutState
                0x00000000       0x4c build/tasks.o
 .text.uxTaskGetTaskNumber
                0x00000000       0x2a build/tasks.o
 .text.vTaskSetTaskNumber
                0x00000000       0x24 build/tasks.o
 .text.vTaskGetInfo
                0x00000000       0xcc build/tasks.o
 .text.prvListTasksWithinSingleList
                0x00000000       0xa4 build/tasks.o
 .text.prvTaskCheckFreeStackSpace
                0x00000000       0x36 build/tasks.o
 .text.uxTaskGetStackHighWaterMark
                0x00000000       0x38 build/tasks.o
 .text.uxTaskResetEventItemValue
                0x00000000       0x30 build/tasks.o
 .text.ulTaskNotifyTake
                0x00000000       0x90 build/tasks.o
 .text.xTaskNotifyWait
                0x00000000       0xb4 build/tasks.o
 .text.xTaskGenericNotify
                0x00000000      0x148 build/tasks.o
 .text.xTaskGenericNotifyFromISR
                0x00000000      0x194 build/tasks.o
 .text.vTaskNotifyGiveFromISR
                0x00000000      0x128 build/tasks.o
 .text.xTaskNotifyStateClear
                0x00000000       0x4c build/tasks.o
 .text          0x00000000        0x0 build/timers.o
 .data          0x00000000        0x0 build/timers.o
 .bss           0x00000000        0x0 build/timers.o
 .text.xTimerCreate
                0x00000000       0x42 build/timers.o
 .text.xTimerCreateStatic
                0x00000000       0x7a build/timers.o
 .text.prvInitialiseNewTimer
                0x00000000       0x64 build/timers.o
 .text.xTimerGetTimerDaemonTaskHandle
                0x00000000       0x38 build/timers.o
 .text.xTimerGetPeriod
                0x00000000       0x36 build/timers.o
 .text.xTimerGetExpiryTime
                0x00000000       0x3a build/timers.o
 .text.pcTimerGetName
                0x00000000       0x36 build/timers.o
 .text.xTimerIsTimerActive
                0x00000000       0x4a build/timers.o
 .text.pvTimerGetTimerID
                0x00000000       0x40 build/timers.o
 .text.vTimerSetTimerID
                0x00000000       0x40 build/timers.o
 .text.xTimerPendFunctionCallFromISR
                0x00000000       0x40 build/timers.o
 .text.xTimerPendFunctionCall
                0x00000000       0x60 build/timers.o
 .text.uxTimerGetTimerNumber
                0x00000000       0x16 build/timers.o
 .text.vTimerSetTimerNumber
                0x00000000       0x1a build/timers.o
 .text          0x00000000        0x0 build/cmsis_os2.o
 .data          0x00000000        0x0 build/cmsis_os2.o
 .bss           0x00000000        0x0 build/cmsis_os2.o
 .rodata        0x00000000       0x11 build/cmsis_os2.o
 .text.osKernelGetInfo
                0x00000000       0x50 build/cmsis_os2.o
 .text.osKernelGetState
                0x00000000       0x44 build/cmsis_os2.o
 .text.osKernelLock
                0x00000000       0x70 build/cmsis_os2.o
 .text.osKernelUnlock
                0x00000000       0x88 build/cmsis_os2.o
 .text.osKernelRestoreLock
                0x00000000       0x98 build/cmsis_os2.o
 .text.osKernelGetTickFreq
                0x00000000       0x10 build/cmsis_os2.o
 .text.osKernelGetSysTimerCount
                0x00000000       0x54 build/cmsis_os2.o
 .text.osKernelGetSysTimerFreq
                0x00000000       0x14 build/cmsis_os2.o
 .text.osThreadGetName
                0x00000000       0x5c build/cmsis_os2.o
 .text.osThreadGetId
                0x00000000       0x4c build/cmsis_os2.o
 .text.osThreadGetState
                0x00000000       0x9c build/cmsis_os2.o
 .text.osThreadGetStackSpace
                0x00000000       0x5c build/cmsis_os2.o
 .text.osThreadGetStackSize
                0x00000000       0x14 build/cmsis_os2.o
 .text.osThreadSetPriority
                0x00000000       0x78 build/cmsis_os2.o
 .text.osThreadGetPriority
                0x00000000       0x60 build/cmsis_os2.o
 .text.osThreadYield
                0x00000000       0x64 build/cmsis_os2.o
 .text.osThreadSuspend
                0x00000000       0x68 build/cmsis_os2.o
 .text.osThreadResume
                0x00000000       0x68 build/cmsis_os2.o
 .text.osThreadExit
                0x00000000        0xc build/cmsis_os2.o
 .text.osThreadTerminate
                0x00000000       0x80 build/cmsis_os2.o
 .text.osThreadGetCount
                0x00000000       0x4c build/cmsis_os2.o
 .text.osThreadEnumerate
                0x00000000       0xcc build/cmsis_os2.o
 .text.osThreadFlagsSet
                0x00000000       0xc0 build/cmsis_os2.o
 .text.osThreadFlagsClear
                0x00000000       0xa0 build/cmsis_os2.o
 .text.osThreadFlagsGet
                0x00000000       0x68 build/cmsis_os2.o
 .text.osThreadFlagsWait
                0x00000000      0x128 build/cmsis_os2.o
 .text.osDelayUntil
                0x00000000       0x68 build/cmsis_os2.o
 .text.TimerCallback
                0x00000000       0x2a build/cmsis_os2.o
 .text.osTimerNew
                0x00000000      0x108 build/cmsis_os2.o
 .text.osTimerGetName
                0x00000000       0x5c build/cmsis_os2.o
 .text.osTimerStart
                0x00000000       0x80 build/cmsis_os2.o
 .text.osTimerStop
                0x00000000       0x94 build/cmsis_os2.o
 .text.osTimerIsRunning
                0x00000000       0x5c build/cmsis_os2.o
 .text.osTimerDelete
                0x00000000       0x8c build/cmsis_os2.o
 .text.osEventFlagsNew
                0x00000000       0xa4 build/cmsis_os2.o
 .text.osEventFlagsSet
                0x00000000       0xb0 build/cmsis_os2.o
 .text.osEventFlagsClear
                0x00000000       0x88 build/cmsis_os2.o
 .text.osEventFlagsGet
                0x00000000       0x68 build/cmsis_os2.o
 .text.osEventFlagsWait
                0x00000000       0xec build/cmsis_os2.o
 .text.osEventFlagsDelete
                0x00000000       0x68 build/cmsis_os2.o
 .text.osMutexGetOwner
                0x00000000       0x60 build/cmsis_os2.o
 .text.osMutexDelete
                0x00000000       0x70 build/cmsis_os2.o
 .text.osSemaphoreGetCount
                0x00000000       0x64 build/cmsis_os2.o
 .text.osSemaphoreDelete
                0x00000000       0x6c build/cmsis_os2.o
 .text.osMessageQueueGetCapacity
                0x00000000       0x2a build/cmsis_os2.o
 .text.osMessageQueueGetMsgSize
                0x00000000       0x2a build/cmsis_os2.o
 .text.osMessageQueueGetCount
                0x00000000       0x64 build/cmsis_os2.o
 .text.osMessageQueueGetSpace
                0x00000000       0x90 build/cmsis_os2.o
 .text.osMessageQueueReset
                0x00000000       0x68 build/cmsis_os2.o
 .text.osMessageQueueDelete
                0x00000000       0x6c build/cmsis_os2.o
 .text          0x00000000        0x0 build/heap_4.o
 .data          0x00000000        0x0 build/heap_4.o
 .bss           0x00000000        0x0 build/heap_4.o
 .rodata.xHeapStructSize
                0x00000000        0x4 build/heap_4.o
 .text.xPortGetFreeHeapSize
                0x00000000       0x14 build/heap_4.o
 .text.xPortGetMinimumEverFreeHeapSize
                0x00000000       0x14 build/heap_4.o
 .text.vPortInitialiseBlocks
                0x00000000        0xc build/heap_4.o
 .text          0x00000000        0x0 build/port.o
 .data          0x00000000        0x0 build/port.o
 .bss           0x00000000        0x0 build/port.o
 .rodata.pcInterruptPriorityRegisters
                0x00000000        0x4 build/port.o
 .text.vPortEndScheduler
                0x00000000       0x34 build/port.o
 .text          0x00000000        0x0 build/auth.o
 .data          0x00000000        0x0 build/auth.o
 .bss           0x00000000        0x0 build/auth.o
 .debug_info    0x00000000       0x72 build/auth.o
 .debug_abbrev  0x00000000       0x26 build/auth.o
 .debug_aranges
                0x00000000       0x18 build/auth.o
 .debug_line    0x00000000       0x1d build/auth.o
 .debug_str     0x00000000      0x18a build/auth.o
 .comment       0x00000000       0x4a build/auth.o
 .ARM.attributes
                0x00000000       0x2d build/auth.o
 .text          0x00000000        0x0 build/ccp.o
 .data          0x00000000        0x0 build/ccp.o
 .bss           0x00000000        0x0 build/ccp.o
 .debug_info    0x00000000       0x72 build/ccp.o
 .debug_abbrev  0x00000000       0x26 build/ccp.o
 .debug_aranges
                0x00000000       0x18 build/ccp.o
 .debug_line    0x00000000       0x1d build/ccp.o
 .debug_str     0x00000000      0x189 build/ccp.o
 .comment       0x00000000       0x4a build/ccp.o
 .ARM.attributes
                0x00000000       0x2d build/ccp.o
 .text          0x00000000        0x0 build/chap_ms.o
 .data          0x00000000        0x0 build/chap_ms.o
 .bss           0x00000000        0x0 build/chap_ms.o
 .debug_info    0x00000000       0x72 build/chap_ms.o
 .debug_abbrev  0x00000000       0x26 build/chap_ms.o
 .debug_aranges
                0x00000000       0x18 build/chap_ms.o
 .debug_line    0x00000000       0x1d build/chap_ms.o
 .debug_str     0x00000000      0x18d build/chap_ms.o
 .comment       0x00000000       0x4a build/chap_ms.o
 .ARM.attributes
                0x00000000       0x2d build/chap_ms.o
 .text          0x00000000        0x0 build/chap-md5.o
 .data          0x00000000        0x0 build/chap-md5.o
 .bss           0x00000000        0x0 build/chap-md5.o
 .debug_info    0x00000000       0x72 build/chap-md5.o
 .debug_abbrev  0x00000000       0x26 build/chap-md5.o
 .debug_aranges
                0x00000000       0x18 build/chap-md5.o
 .debug_line    0x00000000       0x1d build/chap-md5.o
 .debug_str     0x00000000      0x18e build/chap-md5.o
 .comment       0x00000000       0x4a build/chap-md5.o
 .ARM.attributes
                0x00000000       0x2d build/chap-md5.o
 .text          0x00000000        0x0 build/chap-new.o
 .data          0x00000000        0x0 build/chap-new.o
 .bss           0x00000000        0x0 build/chap-new.o
 .debug_info    0x00000000       0x72 build/chap-new.o
 .debug_abbrev  0x00000000       0x26 build/chap-new.o
 .debug_aranges
                0x00000000       0x18 build/chap-new.o
 .debug_line    0x00000000       0x1d build/chap-new.o
 .debug_str     0x00000000      0x18e build/chap-new.o
 .comment       0x00000000       0x4a build/chap-new.o
 .ARM.attributes
                0x00000000       0x2d build/chap-new.o
 .text          0x00000000        0x0 build/demand.o
 .data          0x00000000        0x0 build/demand.o
 .bss           0x00000000        0x0 build/demand.o
 .debug_info    0x00000000       0x72 build/demand.o
 .debug_abbrev  0x00000000       0x26 build/demand.o
 .debug_aranges
                0x00000000       0x18 build/demand.o
 .debug_line    0x00000000       0x1d build/demand.o
 .debug_str     0x00000000      0x18c build/demand.o
 .comment       0x00000000       0x4a build/demand.o
 .ARM.attributes
                0x00000000       0x2d build/demand.o
 .text          0x00000000        0x0 build/eap.o
 .data          0x00000000        0x0 build/eap.o
 .bss           0x00000000        0x0 build/eap.o
 .debug_info    0x00000000       0x72 build/eap.o
 .debug_abbrev  0x00000000       0x26 build/eap.o
 .debug_aranges
                0x00000000       0x18 build/eap.o
 .debug_line    0x00000000       0x1d build/eap.o
 .debug_str     0x00000000      0x189 build/eap.o
 .comment       0x00000000       0x4a build/eap.o
 .ARM.attributes
                0x00000000       0x2d build/eap.o
 .text          0x00000000        0x0 build/eui64.o
 .data          0x00000000        0x0 build/eui64.o
 .bss           0x00000000        0x0 build/eui64.o
 .debug_info    0x00000000       0x72 build/eui64.o
 .debug_abbrev  0x00000000       0x26 build/eui64.o
 .debug_aranges
                0x00000000       0x18 build/eui64.o
 .debug_line    0x00000000       0x1d build/eui64.o
 .debug_str     0x00000000      0x18b build/eui64.o
 .comment       0x00000000       0x4a build/eui64.o
 .ARM.attributes
                0x00000000       0x2d build/eui64.o
 .text          0x00000000        0x0 build/fsm.o
 .data          0x00000000        0x0 build/fsm.o
 .bss           0x00000000        0x0 build/fsm.o
 .debug_info    0x00000000       0x72 build/fsm.o
 .debug_abbrev  0x00000000       0x26 build/fsm.o
 .debug_aranges
                0x00000000       0x18 build/fsm.o
 .debug_line    0x00000000       0x1d build/fsm.o
 .debug_str     0x00000000      0x189 build/fsm.o
 .comment       0x00000000       0x4a build/fsm.o
 .ARM.attributes
                0x00000000       0x2d build/fsm.o
 .text          0x00000000        0x0 build/ipcp.o
 .data          0x00000000        0x0 build/ipcp.o
 .bss           0x00000000        0x0 build/ipcp.o
 .debug_info    0x00000000       0x72 build/ipcp.o
 .debug_abbrev  0x00000000       0x26 build/ipcp.o
 .debug_aranges
                0x00000000       0x18 build/ipcp.o
 .debug_line    0x00000000       0x1d build/ipcp.o
 .debug_str     0x00000000      0x18a build/ipcp.o
 .comment       0x00000000       0x4a build/ipcp.o
 .ARM.attributes
                0x00000000       0x2d build/ipcp.o
 .text          0x00000000        0x0 build/ipv6cp.o
 .data          0x00000000        0x0 build/ipv6cp.o
 .bss           0x00000000        0x0 build/ipv6cp.o
 .debug_info    0x00000000       0x72 build/ipv6cp.o
 .debug_abbrev  0x00000000       0x26 build/ipv6cp.o
 .debug_aranges
                0x00000000       0x18 build/ipv6cp.o
 .debug_line    0x00000000       0x1d build/ipv6cp.o
 .debug_str     0x00000000      0x18c build/ipv6cp.o
 .comment       0x00000000       0x4a build/ipv6cp.o
 .ARM.attributes
                0x00000000       0x2d build/ipv6cp.o
 .text          0x00000000        0x0 build/lcp.o
 .data          0x00000000        0x0 build/lcp.o
 .bss           0x00000000        0x0 build/lcp.o
 .debug_info    0x00000000       0x72 build/lcp.o
 .debug_abbrev  0x00000000       0x26 build/lcp.o
 .debug_aranges
                0x00000000       0x18 build/lcp.o
 .debug_line    0x00000000       0x1d build/lcp.o
 .debug_str     0x00000000      0x189 build/lcp.o
 .comment       0x00000000       0x4a build/lcp.o
 .ARM.attributes
                0x00000000       0x2d build/lcp.o
 .text          0x00000000        0x0 build/magic.o
 .data          0x00000000        0x0 build/magic.o
 .bss           0x00000000        0x0 build/magic.o
 .debug_info    0x00000000       0x72 build/magic.o
 .debug_abbrev  0x00000000       0x26 build/magic.o
 .debug_aranges
                0x00000000       0x18 build/magic.o
 .debug_line    0x00000000       0x1d build/magic.o
 .debug_str     0x00000000      0x18b build/magic.o
 .comment       0x00000000       0x4a build/magic.o
 .ARM.attributes
                0x00000000       0x2d build/magic.o
 .text          0x00000000        0x0 build/mppe.o
 .data          0x00000000        0x0 build/mppe.o
 .bss           0x00000000        0x0 build/mppe.o
 .debug_info    0x00000000       0x72 build/mppe.o
 .debug_abbrev  0x00000000       0x26 build/mppe.o
 .debug_aranges
                0x00000000       0x18 build/mppe.o
 .debug_line    0x00000000       0x1d build/mppe.o
 .debug_str     0x00000000      0x18a build/mppe.o
 .comment       0x00000000       0x4a build/mppe.o
 .ARM.attributes
                0x00000000       0x2d build/mppe.o
 .text          0x00000000        0x0 build/multilink.o
 .data          0x00000000        0x0 build/multilink.o
 .bss           0x00000000        0x0 build/multilink.o
 .debug_info    0x00000000       0x72 build/multilink.o
 .debug_abbrev  0x00000000       0x26 build/multilink.o
 .debug_aranges
                0x00000000       0x18 build/multilink.o
 .debug_line    0x00000000       0x1d build/multilink.o
 .debug_str     0x00000000      0x18f build/multilink.o
 .comment       0x00000000       0x4a build/multilink.o
 .ARM.attributes
                0x00000000       0x2d build/multilink.o
 .text          0x00000000        0x0 build/ppp.o
 .data          0x00000000        0x0 build/ppp.o
 .bss           0x00000000        0x0 build/ppp.o
 .debug_info    0x00000000       0x72 build/ppp.o
 .debug_abbrev  0x00000000       0x26 build/ppp.o
 .debug_aranges
                0x00000000       0x18 build/ppp.o
 .debug_line    0x00000000       0x1d build/ppp.o
 .debug_str     0x00000000      0x189 build/ppp.o
 .comment       0x00000000       0x4a build/ppp.o
 .ARM.attributes
                0x00000000       0x2d build/ppp.o
 .text          0x00000000        0x0 build/pppapi.o
 .data          0x00000000        0x0 build/pppapi.o
 .bss           0x00000000        0x0 build/pppapi.o
 .debug_info    0x00000000       0x72 build/pppapi.o
 .debug_abbrev  0x00000000       0x26 build/pppapi.o
 .debug_aranges
                0x00000000       0x18 build/pppapi.o
 .debug_line    0x00000000       0x1d build/pppapi.o
 .debug_str     0x00000000      0x18c build/pppapi.o
 .comment       0x00000000       0x4a build/pppapi.o
 .ARM.attributes
                0x00000000       0x2d build/pppapi.o
 .text          0x00000000        0x0 build/pppcrypt.o
 .data          0x00000000        0x0 build/pppcrypt.o
 .bss           0x00000000        0x0 build/pppcrypt.o
 .debug_info    0x00000000       0x72 build/pppcrypt.o
 .debug_abbrev  0x00000000       0x26 build/pppcrypt.o
 .debug_aranges
                0x00000000       0x18 build/pppcrypt.o
 .debug_line    0x00000000       0x1d build/pppcrypt.o
 .debug_str     0x00000000      0x18e build/pppcrypt.o
 .comment       0x00000000       0x4a build/pppcrypt.o
 .ARM.attributes
                0x00000000       0x2d build/pppcrypt.o
 .text          0x00000000        0x0 build/pppoe.o
 .data          0x00000000        0x0 build/pppoe.o
 .bss           0x00000000        0x0 build/pppoe.o
 .debug_info    0x00000000       0x72 build/pppoe.o
 .debug_abbrev  0x00000000       0x26 build/pppoe.o
 .debug_aranges
                0x00000000       0x18 build/pppoe.o
 .debug_line    0x00000000       0x1d build/pppoe.o
 .debug_str     0x00000000      0x18b build/pppoe.o
 .comment       0x00000000       0x4a build/pppoe.o
 .ARM.attributes
                0x00000000       0x2d build/pppoe.o
 .text          0x00000000        0x0 build/pppol2tp.o
 .data          0x00000000        0x0 build/pppol2tp.o
 .bss           0x00000000        0x0 build/pppol2tp.o
 .debug_info    0x00000000       0x72 build/pppol2tp.o
 .debug_abbrev  0x00000000       0x26 build/pppol2tp.o
 .debug_aranges
                0x00000000       0x18 build/pppol2tp.o
 .debug_line    0x00000000       0x1d build/pppol2tp.o
 .debug_str     0x00000000      0x18e build/pppol2tp.o
 .comment       0x00000000       0x4a build/pppol2tp.o
 .ARM.attributes
                0x00000000       0x2d build/pppol2tp.o
 .text          0x00000000        0x0 build/pppos.o
 .data          0x00000000        0x0 build/pppos.o
 .bss           0x00000000        0x0 build/pppos.o
 .debug_info    0x00000000       0x72 build/pppos.o
 .debug_abbrev  0x00000000       0x26 build/pppos.o
 .debug_aranges
                0x00000000       0x18 build/pppos.o
 .debug_line    0x00000000       0x1d build/pppos.o
 .debug_str     0x00000000      0x18b build/pppos.o
 .comment       0x00000000       0x4a build/pppos.o
 .ARM.attributes
                0x00000000       0x2d build/pppos.o
 .text          0x00000000        0x0 build/upap.o
 .data          0x00000000        0x0 build/upap.o
 .bss           0x00000000        0x0 build/upap.o
 .debug_info    0x00000000       0x72 build/upap.o
 .debug_abbrev  0x00000000       0x26 build/upap.o
 .debug_aranges
                0x00000000       0x18 build/upap.o
 .debug_line    0x00000000       0x1d build/upap.o
 .debug_str     0x00000000      0x18a build/upap.o
 .comment       0x00000000       0x4a build/upap.o
 .ARM.attributes
                0x00000000       0x2d build/upap.o
 .text          0x00000000        0x0 build/utils.o
 .data          0x00000000        0x0 build/utils.o
 .bss           0x00000000        0x0 build/utils.o
 .debug_info    0x00000000       0x72 build/utils.o
 .debug_abbrev  0x00000000       0x26 build/utils.o
 .debug_aranges
                0x00000000       0x18 build/utils.o
 .debug_line    0x00000000       0x1d build/utils.o
 .debug_str     0x00000000      0x18b build/utils.o
 .comment       0x00000000       0x4a build/utils.o
 .ARM.attributes
                0x00000000       0x2d build/utils.o
 .text          0x00000000        0x0 build/vj.o
 .data          0x00000000        0x0 build/vj.o
 .bss           0x00000000        0x0 build/vj.o
 .debug_info    0x00000000       0x72 build/vj.o
 .debug_abbrev  0x00000000       0x26 build/vj.o
 .debug_aranges
                0x00000000       0x18 build/vj.o
 .debug_line    0x00000000       0x1d build/vj.o
 .debug_str     0x00000000      0x188 build/vj.o
 .comment       0x00000000       0x4a build/vj.o
 .ARM.attributes
                0x00000000       0x2d build/vj.o
 .text          0x00000000        0x0 build/ethernet.o
 .data          0x00000000        0x0 build/ethernet.o
 .bss           0x00000000        0x0 build/ethernet.o
 .text          0x00000000        0x0 build/slipif.o
 .data          0x00000000        0x0 build/slipif.o
 .bss           0x00000000        0x0 build/slipif.o
 .text.slipif_poll
                0x00000000       0x74 build/slipif.o
 .text.slipif_process_rxqueue
                0x00000000       0xb8 build/slipif.o
 .text.slipif_rxbyte_enqueue
                0x00000000       0x62 build/slipif.o
 .text.slipif_received_byte
                0x00000000       0x58 build/slipif.o
 .text.slipif_received_bytes
                0x00000000       0x7c build/slipif.o
 .text          0x00000000        0x0 build/lowpan6.o
 .data          0x00000000        0x0 build/lowpan6.o
 .bss           0x00000000        0x0 build/lowpan6.o
 .debug_info    0x00000000       0x72 build/lowpan6.o
 .debug_abbrev  0x00000000       0x26 build/lowpan6.o
 .debug_aranges
                0x00000000       0x18 build/lowpan6.o
 .debug_line    0x00000000       0x1d build/lowpan6.o
 .debug_str     0x00000000      0x189 build/lowpan6.o
 .comment       0x00000000       0x4a build/lowpan6.o
 .ARM.attributes
                0x00000000       0x2d build/lowpan6.o
 .text          0x00000000        0x0 build/ecp.o
 .data          0x00000000        0x0 build/ecp.o
 .bss           0x00000000        0x0 build/ecp.o
 .debug_info    0x00000000       0x72 build/ecp.o
 .debug_abbrev  0x00000000       0x26 build/ecp.o
 .debug_aranges
                0x00000000       0x18 build/ecp.o
 .debug_line    0x00000000       0x1d build/ecp.o
 .debug_str     0x00000000      0x189 build/ecp.o
 .comment       0x00000000       0x4a build/ecp.o
 .ARM.attributes
                0x00000000       0x2d build/ecp.o
 .text          0x00000000        0x0 build/api_lib.o
 .data          0x00000000        0x0 build/api_lib.o
 .bss           0x00000000        0x0 build/api_lib.o
 .text.netconn_apimsg
                0x00000000       0x3a build/api_lib.o
 .rodata        0x00000000      0x2e0 build/api_lib.o
 .text.netconn_new_with_proto_and_callback
                0x00000000       0xf4 build/api_lib.o
 .text.netconn_delete
                0x00000000       0x4c build/api_lib.o
 .text.netconn_getaddr
                0x00000000       0xa0 build/api_lib.o
 .text.netconn_bind
                0x00000000       0x70 build/api_lib.o
 .text.netconn_connect
                0x00000000       0x70 build/api_lib.o
 .text.netconn_disconnect
                0x00000000       0x54 build/api_lib.o
 .text.netconn_listen_with_backlog
                0x00000000       0x58 build/api_lib.o
 .text.netconn_accept
                0x00000000       0xf8 build/api_lib.o
 .text.netconn_recv_data
                0x00000000      0x1a4 build/api_lib.o
 .text.netconn_recv_tcp_pbuf
                0x00000000       0x50 build/api_lib.o
 .text.netconn_recv
                0x00000000       0xf0 build/api_lib.o
 .text.netconn_sendto
                0x00000000       0x44 build/api_lib.o
 .text.netconn_send
                0x00000000       0x58 build/api_lib.o
 .text.netconn_write_partly
                0x00000000       0xf0 build/api_lib.o
 .text.netconn_close_shutdown
                0x00000000       0x60 build/api_lib.o
 .text.netconn_close
                0x00000000       0x1a build/api_lib.o
 .text.netconn_shutdown
                0x00000000       0x42 build/api_lib.o
 .debug_info    0x00000000     0x15dd build/api_lib.o
 .debug_abbrev  0x00000000      0x24f build/api_lib.o
 .debug_loc     0x00000000      0x5a0 build/api_lib.o
 .debug_aranges
                0x00000000       0xa8 build/api_lib.o
 .debug_ranges  0x00000000       0x98 build/api_lib.o
 .debug_line    0x00000000      0x80a build/api_lib.o
 .debug_str     0x00000000      0xaee build/api_lib.o
 .comment       0x00000000       0x4a build/api_lib.o
 .debug_frame   0x00000000      0x298 build/api_lib.o
 .ARM.attributes
                0x00000000       0x2d build/api_lib.o
 .text          0x00000000        0x0 build/api_msg.o
 .data          0x00000000        0x0 build/api_msg.o
 .bss           0x00000000        0x0 build/api_msg.o
 .bss.netconn_aborted
                0x00000000        0x1 build/api_msg.o
 .rodata        0x00000000      0x4c1 build/api_msg.o
 .text.recv_udp
                0x00000000       0xfc build/api_msg.o
 .text.recv_tcp
                0x00000000      0x110 build/api_msg.o
 .text.poll_tcp
                0x00000000       0xc8 build/api_msg.o
 .text.sent_tcp
                0x00000000       0xa8 build/api_msg.o
 .text.err_tcp  0x00000000      0x1e0 build/api_msg.o
 .text.setup_tcp
                0x00000000       0x50 build/api_msg.o
 .text.accept_function
                0x00000000      0x148 build/api_msg.o
 .text.pcb_new  0x00000000       0xd4 build/api_msg.o
 .text.lwip_netconn_do_newconn
                0x00000000       0x58 build/api_msg.o
 .text.netconn_alloc
                0x00000000       0xe0 build/api_msg.o
 .text.netconn_free
                0x00000000       0x94 build/api_msg.o
 .text.netconn_drain
                0x00000000      0x100 build/api_msg.o
 .text.lwip_netconn_do_close_internal
                0x00000000      0x2f8 build/api_msg.o
 .text.lwip_netconn_do_delconn
                0x00000000      0x204 build/api_msg.o
 .text.lwip_netconn_do_bind
                0x00000000       0xc2 build/api_msg.o
 .text.lwip_netconn_do_connected
                0x00000000      0x144 build/api_msg.o
 .text.lwip_netconn_do_connect
                0x00000000      0x1b8 build/api_msg.o
 .text.lwip_netconn_do_disconnect
                0x00000000       0x6a build/api_msg.o
 .text.lwip_netconn_do_listen
                0x00000000      0x184 build/api_msg.o
 .text.lwip_netconn_do_send
                0x00000000       0xd2 build/api_msg.o
 .text.lwip_netconn_do_recv
                0x00000000       0x98 build/api_msg.o
 .text.lwip_netconn_do_writemore
                0x00000000      0x348 build/api_msg.o
 .text.lwip_netconn_do_write
                0x00000000      0x160 build/api_msg.o
 .text.lwip_netconn_do_getaddr
                0x00000000      0x138 build/api_msg.o
 .text.lwip_netconn_do_close
                0x00000000      0x150 build/api_msg.o
 .debug_info    0x00000000     0x19cd build/api_msg.o
 .debug_abbrev  0x00000000      0x2a0 build/api_msg.o
 .debug_loc     0x00000000      0x7d0 build/api_msg.o
 .debug_aranges
                0x00000000       0xe0 build/api_msg.o
 .debug_ranges  0x00000000       0xf0 build/api_msg.o
 .debug_line    0x00000000     0x12d6 build/api_msg.o
 .debug_str     0x00000000      0xc15 build/api_msg.o
 .comment       0x00000000       0x4a build/api_msg.o
 .debug_frame   0x00000000      0x3a0 build/api_msg.o
 .ARM.attributes
                0x00000000       0x2d build/api_msg.o
 .text          0x00000000        0x0 build/err.o
 .data          0x00000000        0x0 build/err.o
 .bss           0x00000000        0x0 build/err.o
 .rodata.err_to_errno_table
                0x00000000       0x44 build/err.o
 .text.err_to_errno
                0x00000000       0x3c build/err.o
 .debug_info    0x00000000      0x105 build/err.o
 .debug_abbrev  0x00000000       0x92 build/err.o
 .debug_loc     0x00000000       0x5c build/err.o
 .debug_aranges
                0x00000000       0x20 build/err.o
 .debug_ranges  0x00000000       0x10 build/err.o
 .debug_line    0x00000000      0x141 build/err.o
 .debug_str     0x00000000      0x1be build/err.o
 .comment       0x00000000       0x4a build/err.o
 .debug_frame   0x00000000       0x38 build/err.o
 .ARM.attributes
                0x00000000       0x2d build/err.o
 .text          0x00000000        0x0 build/netbuf.o
 .data          0x00000000        0x0 build/netbuf.o
 .bss           0x00000000        0x0 build/netbuf.o
 .text.netbuf_new
                0x00000000       0x28 build/netbuf.o
 .text.netbuf_delete
                0x00000000       0x3e build/netbuf.o
 .rodata        0x00000000      0x192 build/netbuf.o
 .text.netbuf_alloc
                0x00000000       0x90 build/netbuf.o
 .text.netbuf_free
                0x00000000       0x50 build/netbuf.o
 .text.netbuf_ref
                0x00000000       0x94 build/netbuf.o
 .text.netbuf_chain
                0x00000000       0x68 build/netbuf.o
 .text.netbuf_data
                0x00000000       0x94 build/netbuf.o
 .text.netbuf_next
                0x00000000       0x60 build/netbuf.o
 .text.netbuf_first
                0x00000000       0x38 build/netbuf.o
 .debug_info    0x00000000      0x574 build/netbuf.o
 .debug_abbrev  0x00000000      0x131 build/netbuf.o
 .debug_loc     0x00000000      0x2d0 build/netbuf.o
 .debug_aranges
                0x00000000       0x60 build/netbuf.o
 .debug_ranges  0x00000000       0x50 build/netbuf.o
 .debug_line    0x00000000      0x35c build/netbuf.o
 .debug_str     0x00000000      0x499 build/netbuf.o
 .comment       0x00000000       0x4a build/netbuf.o
 .debug_frame   0x00000000      0x154 build/netbuf.o
 .ARM.attributes
                0x00000000       0x2d build/netbuf.o
 .text          0x00000000        0x0 build/netdb.o
 .data          0x00000000        0x0 build/netdb.o
 .bss           0x00000000        0x0 build/netdb.o
 .debug_info    0x00000000       0x72 build/netdb.o
 .debug_abbrev  0x00000000       0x26 build/netdb.o
 .debug_aranges
                0x00000000       0x18 build/netdb.o
 .debug_line    0x00000000       0x1d build/netdb.o
 .debug_str     0x00000000      0x185 build/netdb.o
 .comment       0x00000000       0x4a build/netdb.o
 .ARM.attributes
                0x00000000       0x2d build/netdb.o
 .text          0x00000000        0x0 build/netifapi.o
 .data          0x00000000        0x0 build/netifapi.o
 .bss           0x00000000        0x0 build/netifapi.o
 .debug_info    0x00000000       0x72 build/netifapi.o
 .debug_abbrev  0x00000000       0x26 build/netifapi.o
 .debug_aranges
                0x00000000       0x18 build/netifapi.o
 .debug_line    0x00000000       0x1d build/netifapi.o
 .debug_str     0x00000000      0x188 build/netifapi.o
 .comment       0x00000000       0x4a build/netifapi.o
 .ARM.attributes
                0x00000000       0x2d build/netifapi.o
 .text          0x00000000        0x0 build/sockets.o
 .data          0x00000000        0x0 build/sockets.o
 .bss           0x00000000        0x0 build/sockets.o
 .bss.sockets   0x00000000       0x50 build/sockets.o
 .bss.select_cb_list
                0x00000000        0x4 build/sockets.o
 .bss.select_cb_ctr
                0x00000000        0x4 build/sockets.o
 .text.lwip_socket_thread_init
                0x00000000        0xc build/sockets.o
 .text.lwip_socket_thread_cleanup
                0x00000000        0xc build/sockets.o
 .text.get_socket
                0x00000000       0x54 build/sockets.o
 .text.tryget_socket
                0x00000000       0x4c build/sockets.o
 .text.alloc_socket
                0x00000000      0x110 build/sockets.o
 .text.free_socket
                0x00000000       0x56 build/sockets.o
 .rodata        0x00000000      0x26a build/sockets.o
 .text.lwip_accept
                0x00000000      0x2a4 build/sockets.o
 .text.lwip_bind
                0x00000000       0xf4 build/sockets.o
 .text.lwip_close
                0x00000000       0xb4 build/sockets.o
 .text.lwip_connect
                0x00000000      0x118 build/sockets.o
 .text.lwip_listen
                0x00000000       0xc4 build/sockets.o
 .text.lwip_recvfrom
                0x00000000      0x370 build/sockets.o
 .text.lwip_read
                0x00000000       0x2a build/sockets.o
 .text.lwip_recv
                0x00000000       0x2c build/sockets.o
 .text.lwip_send
                0x00000000       0xc8 build/sockets.o
 .text.lwip_sendmsg
                0x00000000      0x380 build/sockets.o
 .text.lwip_sendto
                0x00000000      0x168 build/sockets.o
 .text.lwip_socket
                0x00000000       0xbc build/sockets.o
 .text.lwip_write
                0x00000000       0x22 build/sockets.o
 .text.lwip_writev
                0x00000000       0x40 build/sockets.o
 .text.lwip_selscan
                0x00000000      0x338 build/sockets.o
 .text.lwip_select
                0x00000000      0x478 build/sockets.o
 .text.event_callback
                0x00000000      0x240 build/sockets.o
 .text.lwip_shutdown
                0x00000000      0x11c build/sockets.o
 .text.lwip_getaddrname
                0x00000000       0xe8 build/sockets.o
 .text.lwip_getpeername
                0x00000000       0x22 build/sockets.o
 .text.lwip_getsockname
                0x00000000       0x22 build/sockets.o
 .text.lwip_getsockopt
                0x00000000       0xa4 build/sockets.o
 .text.lwip_getsockopt_impl
                0x00000000      0x37c build/sockets.o
 .text.lwip_setsockopt
                0x00000000       0xa0 build/sockets.o
 .text.lwip_setsockopt_impl
                0x00000000      0x280 build/sockets.o
 .text.lwip_ioctl
                0x00000000       0xb4 build/sockets.o
 .text.lwip_fcntl
                0x00000000      0x100 build/sockets.o
 .debug_info    0x00000000     0x28dd build/sockets.o
 .debug_abbrev  0x00000000      0x26a build/sockets.o
 .debug_loc     0x00000000      0xa5e build/sockets.o
 .debug_aranges
                0x00000000      0x120 build/sockets.o
 .debug_ranges  0x00000000      0x110 build/sockets.o
 .debug_line    0x00000000     0x165d build/sockets.o
 .debug_str     0x00000000      0xf4f build/sockets.o
 .comment       0x00000000       0x4a build/sockets.o
 .debug_frame   0x00000000      0x4e4 build/sockets.o
 .ARM.attributes
                0x00000000       0x2d build/sockets.o
 .text          0x00000000        0x0 build/tcpip.o
 .data          0x00000000        0x0 build/tcpip.o
 .bss           0x00000000        0x0 build/tcpip.o
 .text.tcpip_send_msg_wait_sem
                0x00000000       0x2c build/tcpip.o
 .text.tcpip_api_call
                0x00000000       0x30 build/tcpip.o
 .text.tcpip_callbackmsg_new
                0x00000000       0x38 build/tcpip.o
 .text.tcpip_callbackmsg_delete
                0x00000000       0x18 build/tcpip.o
 .text.tcpip_trycallback
                0x00000000       0x44 build/tcpip.o
 .text.pbuf_free_int
                0x00000000       0x1a build/tcpip.o
 .text.pbuf_free_callback
                0x00000000       0x20 build/tcpip.o
 .text.mem_free_callback
                0x00000000       0x20 build/tcpip.o
 .text          0x00000000        0x0 build/def.o
 .data          0x00000000        0x0 build/def.o
 .bss           0x00000000        0x0 build/def.o
 .text.lwip_strnstr
                0x00000000       0x6c build/def.o
 .text.lwip_stricmp
                0x00000000       0x66 build/def.o
 .text.lwip_strnicmp
                0x00000000       0x72 build/def.o
 .rodata        0x00000000       0x48 build/def.o
 .text.lwip_itoa
                0x00000000       0x98 build/def.o
 .text          0x00000000        0x0 build/dns.o
 .data          0x00000000        0x0 build/dns.o
 .bss           0x00000000        0x0 build/dns.o
 .debug_info    0x00000000       0x72 build/dns.o
 .debug_abbrev  0x00000000       0x26 build/dns.o
 .debug_aranges
                0x00000000       0x18 build/dns.o
 .debug_line    0x00000000       0x1d build/dns.o
 .debug_str     0x00000000      0x184 build/dns.o
 .comment       0x00000000       0x4a build/dns.o
 .ARM.attributes
                0x00000000       0x2d build/dns.o
 .text          0x00000000        0x0 build/inet_chksum.o
 .data          0x00000000        0x0 build/inet_chksum.o
 .bss           0x00000000        0x0 build/inet_chksum.o
 .text.lwip_standard_chksum
                0x00000000       0xb8 build/inet_chksum.o
 .text.inet_cksum_pseudo_base
                0x00000000       0xd8 build/inet_chksum.o
 .text.inet_chksum_pseudo
                0x00000000       0x70 build/inet_chksum.o
 .text.ip_chksum_pseudo
                0x00000000       0x2c build/inet_chksum.o
 .rodata        0x00000000       0x68 build/inet_chksum.o
 .text.inet_cksum_pseudo_partial_base
                0x00000000      0x124 build/inet_chksum.o
 .text.inet_chksum_pseudo_partial
                0x00000000       0x7e build/inet_chksum.o
 .text.ip_chksum_pseudo_partial
                0x00000000       0x3a build/inet_chksum.o
 .text.inet_chksum
                0x00000000       0x24 build/inet_chksum.o
 .text.inet_chksum_pbuf
                0x00000000       0x94 build/inet_chksum.o
 .debug_info    0x00000000      0x64c build/inet_chksum.o
 .debug_abbrev  0x00000000      0x159 build/inet_chksum.o
 .debug_loc     0x00000000      0x2dc build/inet_chksum.o
 .debug_aranges
                0x00000000       0x60 build/inet_chksum.o
 .debug_ranges  0x00000000       0x50 build/inet_chksum.o
 .debug_line    0x00000000      0x3f5 build/inet_chksum.o
 .debug_str     0x00000000      0x336 build/inet_chksum.o
 .comment       0x00000000       0x4a build/inet_chksum.o
 .debug_frame   0x00000000      0x158 build/inet_chksum.o
 .ARM.attributes
                0x00000000       0x2d build/inet_chksum.o
 .text          0x00000000        0x0 build/init.o
 .data          0x00000000        0x0 build/init.o
 .bss           0x00000000        0x0 build/init.o
 .text          0x00000000        0x0 build/ip.o
 .data          0x00000000        0x0 build/ip.o
 .bss           0x00000000        0x0 build/ip.o
 .text          0x00000000        0x0 build/mem.o
 .data          0x00000000        0x0 build/mem.o
 .bss           0x00000000        0x0 build/mem.o
 .text.mem_calloc
                0x00000000       0x44 build/mem.o
 .text          0x00000000        0x0 build/memp.o
 .data          0x00000000        0x0 build/memp.o
 .bss           0x00000000        0x0 build/memp.o
 .text.memp_malloc_pool
                0x00000000       0x44 build/memp.o
 .text.memp_free_pool
                0x00000000       0x48 build/memp.o
 .text          0x00000000        0x0 build/netif.o
 .data          0x00000000        0x0 build/netif.o
 .bss           0x00000000        0x0 build/netif.o
 .text.netif_input
                0x00000000       0x36 build/netif.o
 .text.netif_remove
                0x00000000       0xa8 build/netif.o
 .text.netif_find
                0x00000000       0x70 build/netif.o
 .text          0x00000000        0x0 build/pbuf.o
 .data          0x00000000        0x0 build/pbuf.o
 .bss           0x00000000        0x0 build/pbuf.o
 .text.pbuf_chain
                0x00000000       0x20 build/pbuf.o
 .text.pbuf_dechain
                0x00000000       0xa4 build/pbuf.o
 .text.pbuf_skip_const
                0x00000000       0x50 build/pbuf.o
 .text.pbuf_skip
                0x00000000       0x26 build/pbuf.o
 .text.pbuf_take
                0x00000000      0x124 build/pbuf.o
 .text.pbuf_take_at
                0x00000000       0xa4 build/pbuf.o
 .text.pbuf_coalesce
                0x00000000       0x70 build/pbuf.o
 .text.pbuf_get_at
                0x00000000       0x2e build/pbuf.o
 .text.pbuf_try_get_at
                0x00000000       0x44 build/pbuf.o
 .text.pbuf_put_at
                0x00000000       0x44 build/pbuf.o
 .text.pbuf_memcmp
                0x00000000       0x9e build/pbuf.o
 .text.pbuf_memfind
                0x00000000       0x6a build/pbuf.o
 .text.pbuf_strstr
                0x00000000       0x5a build/pbuf.o
 .text          0x00000000        0x0 build/raw.o
 .data          0x00000000        0x0 build/raw.o
 .bss           0x00000000        0x0 build/raw.o
 .debug_info    0x00000000       0x72 build/raw.o
 .debug_abbrev  0x00000000       0x26 build/raw.o
 .debug_aranges
                0x00000000       0x18 build/raw.o
 .debug_line    0x00000000       0x1d build/raw.o
 .debug_str     0x00000000      0x184 build/raw.o
 .comment       0x00000000       0x4a build/raw.o
 .ARM.attributes
                0x00000000       0x2d build/raw.o
 .text          0x00000000        0x0 build/stats.o
 .data          0x00000000        0x0 build/stats.o
 .bss           0x00000000        0x0 build/stats.o
 .debug_info    0x00000000       0x72 build/stats.o
 .debug_abbrev  0x00000000       0x26 build/stats.o
 .debug_aranges
                0x00000000       0x18 build/stats.o
 .debug_line    0x00000000       0x1d build/stats.o
 .debug_str     0x00000000      0x186 build/stats.o
 .comment       0x00000000       0x4a build/stats.o
 .ARM.attributes
                0x00000000       0x2d build/stats.o
 .text          0x00000000        0x0 build/sys.o
 .data          0x00000000        0x0 build/sys.o
 .bss           0x00000000        0x0 build/sys.o
 .text.sys_msleep
                0x00000000       0x44 build/sys.o
 .debug_info    0x00000000      0x1af build/sys.o
 .debug_abbrev  0x00000000       0xbd build/sys.o
 .debug_loc     0x00000000       0x50 build/sys.o
 .debug_aranges
                0x00000000       0x20 build/sys.o
 .debug_ranges  0x00000000       0x10 build/sys.o
 .debug_line    0x00000000      0x1b8 build/sys.o
 .debug_str     0x00000000      0x289 build/sys.o
 .comment       0x00000000       0x4a build/sys.o
 .debug_frame   0x00000000       0x34 build/sys.o
 .ARM.attributes
                0x00000000       0x2d build/sys.o
 .text          0x00000000        0x0 build/tcp.o
 .data          0x00000000        0x0 build/tcp.o
 .bss           0x00000000        0x0 build/tcp.o
 .rodata.tcp_state_str
                0x00000000       0x2c build/tcp.o
 .data.tcp_port
                0x00000000        0x2 build/tcp.o
 .text.tcp_shutdown
                0x00000000       0x90 build/tcp.o
 .text.tcp_bind
                0x00000000      0x124 build/tcp.o
 .text.tcp_accept_null
                0x00000000       0x20 build/tcp.o
 .text.tcp_listen_with_backlog
                0x00000000       0x22 build/tcp.o
 .text.tcp_listen_with_backlog_and_err
                0x00000000      0x130 build/tcp.o
 .text.tcp_new_port
                0x00000000       0x88 build/tcp.o
 .text.tcp_connect
                0x00000000      0x1e8 build/tcp.o
 .text.tcp_txnow
                0x00000000       0x38 build/tcp.o
 .text.tcp_setprio
                0x00000000       0x1c build/tcp.o
 .text.tcp_new  0x00000000       0x10 build/tcp.o
 .text.tcp_new_ip_type
                0x00000000       0x1c build/tcp.o
 .text.tcp_arg  0x00000000       0x20 build/tcp.o
 .text.tcp_recv
                0x00000000       0x44 build/tcp.o
 .text.tcp_sent
                0x00000000       0x40 build/tcp.o
 .text.tcp_err  0x00000000       0x44 build/tcp.o
 .text.tcp_accept
                0x00000000       0x2c build/tcp.o
 .text.tcp_poll
                0x00000000       0x48 build/tcp.o
 .text.tcp_debug_state_str
                0x00000000       0x20 build/tcp.o
 .text          0x00000000        0x0 build/tcp_in.o
 .data          0x00000000        0x0 build/tcp_in.o
 .bss           0x00000000        0x0 build/tcp_in.o
 .text          0x00000000        0x0 build/tcp_out.o
 .data          0x00000000        0x0 build/tcp_out.o
 .bss           0x00000000        0x0 build/tcp_out.o
 .text.tcp_pbuf_prealloc
                0x00000000       0xc4 build/tcp_out.o
 .text.tcp_write_checks
                0x00000000       0xec build/tcp_out.o
 .text.tcp_write
                0x00000000      0x6b4 build/tcp_out.o
 .text          0x00000000        0x0 build/timeouts.o
 .data          0x00000000        0x0 build/timeouts.o
 .bss           0x00000000        0x0 build/timeouts.o
 .text.sys_untimeout
                0x00000000       0x8c build/timeouts.o
 .text.sys_restart_timeouts
                0x00000000       0x18 build/timeouts.o
 .text          0x00000000        0x0 build/udp.o
 .data          0x00000000        0x0 build/udp.o
 .bss           0x00000000        0x0 build/udp.o
 .data.udp_port
                0x00000000        0x2 build/udp.o
 .text.udp_new_port
                0x00000000       0x70 build/udp.o
 .text.udp_send
                0x00000000       0x30 build/udp.o
 .text.udp_sendto
                0x00000000       0x54 build/udp.o
 .text.udp_sendto_if
                0x00000000       0x7a build/udp.o
 .text.udp_sendto_if_src
                0x00000000      0x134 build/udp.o
 .text.udp_bind
                0x00000000       0xe0 build/udp.o
 .text.udp_connect
                0x00000000       0xac build/udp.o
 .text.udp_disconnect
                0x00000000       0x2c build/udp.o
 .text.udp_recv
                0x00000000       0x22 build/udp.o
 .text.udp_remove
                0x00000000       0x64 build/udp.o
 .text.udp_new  0x00000000       0x2e build/udp.o
 .text.udp_new_ip_type
                0x00000000       0x1a build/udp.o
 .text          0x00000000        0x0 build/autoip.o
 .data          0x00000000        0x0 build/autoip.o
 .bss           0x00000000        0x0 build/autoip.o
 .debug_info    0x00000000       0x72 build/autoip.o
 .debug_abbrev  0x00000000       0x26 build/autoip.o
 .debug_aranges
                0x00000000       0x18 build/autoip.o
 .debug_line    0x00000000       0x1d build/autoip.o
 .debug_str     0x00000000      0x18c build/autoip.o
 .comment       0x00000000       0x4a build/autoip.o
 .ARM.attributes
                0x00000000       0x2d build/autoip.o
 .text          0x00000000        0x0 build/dhcp.o
 .data          0x00000000        0x0 build/dhcp.o
 .bss           0x00000000        0x0 build/dhcp.o
 .debug_info    0x00000000       0x72 build/dhcp.o
 .debug_abbrev  0x00000000       0x26 build/dhcp.o
 .debug_aranges
                0x00000000       0x18 build/dhcp.o
 .debug_line    0x00000000       0x1d build/dhcp.o
 .debug_str     0x00000000      0x18a build/dhcp.o
 .comment       0x00000000       0x4a build/dhcp.o
 .ARM.attributes
                0x00000000       0x2d build/dhcp.o
 .text          0x00000000        0x0 build/etharp.o
 .data          0x00000000        0x0 build/etharp.o
 .bss           0x00000000        0x0 build/etharp.o
 .text.etharp_find_addr
                0x00000000       0xa8 build/etharp.o
 .text.etharp_get_entry
                0x00000000       0xd0 build/etharp.o
 .text          0x00000000        0x0 build/icmp.o
 .data          0x00000000        0x0 build/icmp.o
 .bss           0x00000000        0x0 build/icmp.o
 .text          0x00000000        0x0 build/igmp.o
 .data          0x00000000        0x0 build/igmp.o
 .bss           0x00000000        0x0 build/igmp.o
 .debug_info    0x00000000       0x72 build/igmp.o
 .debug_abbrev  0x00000000       0x26 build/igmp.o
 .debug_aranges
                0x00000000       0x18 build/igmp.o
 .debug_line    0x00000000       0x1d build/igmp.o
 .debug_str     0x00000000      0x18a build/igmp.o
 .comment       0x00000000       0x4a build/igmp.o
 .ARM.attributes
                0x00000000       0x2d build/igmp.o
 .text          0x00000000        0x0 build/ip4.o
 .data          0x00000000        0x0 build/ip4.o
 .bss           0x00000000        0x0 build/ip4.o
 .text.ip4_output
                0x00000000       0x6c build/ip4.o
 .text          0x00000000        0x0 build/ip4_addr.o
 .data          0x00000000        0x0 build/ip4_addr.o
 .bss           0x00000000        0x0 build/ip4_addr.o
 .rodata.ip_addr_broadcast
                0x00000000        0x4 build/ip4_addr.o
 .text.ip4_addr_netmask_valid
                0x00000000       0x58 build/ip4_addr.o
 .text.ipaddr_addr
                0x00000000       0x2a build/ip4_addr.o
 .rodata        0x00000000       0x6c build/ip4_addr.o
 .text.ip4addr_aton
                0x00000000      0x280 build/ip4_addr.o
 .text          0x00000000        0x0 build/ip4_frag.o
 .data          0x00000000        0x0 build/ip4_frag.o
 .bss           0x00000000        0x0 build/ip4_frag.o
 .text          0x00000000        0x0 build/dhcp6.o
 .data          0x00000000        0x0 build/dhcp6.o
 .bss           0x00000000        0x0 build/dhcp6.o
 .debug_info    0x00000000       0x72 build/dhcp6.o
 .debug_abbrev  0x00000000       0x26 build/dhcp6.o
 .debug_aranges
                0x00000000       0x18 build/dhcp6.o
 .debug_line    0x00000000       0x1d build/dhcp6.o
 .debug_str     0x00000000      0x18b build/dhcp6.o
 .comment       0x00000000       0x4a build/dhcp6.o
 .ARM.attributes
                0x00000000       0x2d build/dhcp6.o
 .text          0x00000000        0x0 build/ethip6.o
 .data          0x00000000        0x0 build/ethip6.o
 .bss           0x00000000        0x0 build/ethip6.o
 .debug_info    0x00000000       0x72 build/ethip6.o
 .debug_abbrev  0x00000000       0x26 build/ethip6.o
 .debug_aranges
                0x00000000       0x18 build/ethip6.o
 .debug_line    0x00000000       0x1d build/ethip6.o
 .debug_str     0x00000000      0x18c build/ethip6.o
 .comment       0x00000000       0x4a build/ethip6.o
 .ARM.attributes
                0x00000000       0x2d build/ethip6.o
 .text          0x00000000        0x0 build/icmp6.o
 .data          0x00000000        0x0 build/icmp6.o
 .bss           0x00000000        0x0 build/icmp6.o
 .debug_info    0x00000000       0x72 build/icmp6.o
 .debug_abbrev  0x00000000       0x26 build/icmp6.o
 .debug_aranges
                0x00000000       0x18 build/icmp6.o
 .debug_line    0x00000000       0x1d build/icmp6.o
 .debug_str     0x00000000      0x18b build/icmp6.o
 .comment       0x00000000       0x4a build/icmp6.o
 .ARM.attributes
                0x00000000       0x2d build/icmp6.o
 .text          0x00000000        0x0 build/inet6.o
 .data          0x00000000        0x0 build/inet6.o
 .bss           0x00000000        0x0 build/inet6.o
 .debug_info    0x00000000       0x72 build/inet6.o
 .debug_abbrev  0x00000000       0x26 build/inet6.o
 .debug_aranges
                0x00000000       0x18 build/inet6.o
 .debug_line    0x00000000       0x1d build/inet6.o
 .debug_str     0x00000000      0x18b build/inet6.o
 .comment       0x00000000       0x4a build/inet6.o
 .ARM.attributes
                0x00000000       0x2d build/inet6.o
 .text          0x00000000        0x0 build/ip6.o
 .data          0x00000000        0x0 build/ip6.o
 .bss           0x00000000        0x0 build/ip6.o
 .debug_info    0x00000000       0x72 build/ip6.o
 .debug_abbrev  0x00000000       0x26 build/ip6.o
 .debug_aranges
                0x00000000       0x18 build/ip6.o
 .debug_line    0x00000000       0x1d build/ip6.o
 .debug_str     0x00000000      0x189 build/ip6.o
 .comment       0x00000000       0x4a build/ip6.o
 .ARM.attributes
                0x00000000       0x2d build/ip6.o
 .text          0x00000000        0x0 build/ip6_addr.o
 .data          0x00000000        0x0 build/ip6_addr.o
 .bss           0x00000000        0x0 build/ip6_addr.o
 .debug_info    0x00000000       0x72 build/ip6_addr.o
 .debug_abbrev  0x00000000       0x26 build/ip6_addr.o
 .debug_aranges
                0x00000000       0x18 build/ip6_addr.o
 .debug_line    0x00000000       0x1d build/ip6_addr.o
 .debug_str     0x00000000      0x18e build/ip6_addr.o
 .comment       0x00000000       0x4a build/ip6_addr.o
 .ARM.attributes
                0x00000000       0x2d build/ip6_addr.o
 .text          0x00000000        0x0 build/ip6_frag.o
 .data          0x00000000        0x0 build/ip6_frag.o
 .bss           0x00000000        0x0 build/ip6_frag.o
 .debug_info    0x00000000       0x72 build/ip6_frag.o
 .debug_abbrev  0x00000000       0x26 build/ip6_frag.o
 .debug_aranges
                0x00000000       0x18 build/ip6_frag.o
 .debug_line    0x00000000       0x1d build/ip6_frag.o
 .debug_str     0x00000000      0x18e build/ip6_frag.o
 .comment       0x00000000       0x4a build/ip6_frag.o
 .ARM.attributes
                0x00000000       0x2d build/ip6_frag.o
 .text          0x00000000        0x0 build/mld6.o
 .data          0x00000000        0x0 build/mld6.o
 .bss           0x00000000        0x0 build/mld6.o
 .debug_info    0x00000000       0x72 build/mld6.o
 .debug_abbrev  0x00000000       0x26 build/mld6.o
 .debug_aranges
                0x00000000       0x18 build/mld6.o
 .debug_line    0x00000000       0x1d build/mld6.o
 .debug_str     0x00000000      0x18a build/mld6.o
 .comment       0x00000000       0x4a build/mld6.o
 .ARM.attributes
                0x00000000       0x2d build/mld6.o
 .text          0x00000000        0x0 build/nd6.o
 .data          0x00000000        0x0 build/nd6.o
 .bss           0x00000000        0x0 build/nd6.o
 .debug_info    0x00000000       0x72 build/nd6.o
 .debug_abbrev  0x00000000       0x26 build/nd6.o
 .debug_aranges
                0x00000000       0x18 build/nd6.o
 .debug_line    0x00000000       0x1d build/nd6.o
 .debug_str     0x00000000      0x189 build/nd6.o
 .comment       0x00000000       0x4a build/nd6.o
 .ARM.attributes
                0x00000000       0x2d build/nd6.o
 .text          0x00000000        0x0 build/sys_arch.o
 .data          0x00000000        0x0 build/sys_arch.o
 .bss           0x00000000        0x0 build/sys_arch.o
 .text.sys_mbox_free
                0x00000000       0x24 build/sys_arch.o
 .text.sys_arch_mbox_tryfetch
                0x00000000       0x2e build/sys_arch.o
 .text.sys_mbox_set_invalid
                0x00000000       0x18 build/sys_arch.o
 .text.sys_sem_new
                0x00000000       0x4a build/sys_arch.o
 .text.sys_arch_sem_wait
                0x00000000       0x62 build/sys_arch.o
 .text.sys_sem_signal
                0x00000000       0x1a build/sys_arch.o
 .text.sys_sem_free
                0x00000000       0x1a build/sys_arch.o
 .text.sys_sem_valid
                0x00000000       0x20 build/sys_arch.o
 .text.sys_sem_set_invalid
                0x00000000       0x18 build/sys_arch.o
 .text.sys_mutex_free
                0x00000000       0x1a build/sys_arch.o
 .text          0x00000000        0x0 build/mqtt.o
 .data          0x00000000        0x0 build/mqtt.o
 .bss           0x00000000        0x0 build/mqtt.o
 .text.msg_generate_packet_id
                0x00000000       0x36 build/mqtt.o
 .rodata        0x00000000      0x5f5 build/mqtt.o
 .text.mqtt_output_send
                0x00000000      0x130 build/mqtt.o
 .text.mqtt_create_request
                0x00000000       0x8c build/mqtt.o
 .text.mqtt_append_request
                0x00000000       0x98 build/mqtt.o
 .text.mqtt_delete_request
                0x00000000       0x1e build/mqtt.o
 .text.mqtt_take_request
                0x00000000       0xa4 build/mqtt.o
 .text.mqtt_request_time_elapsed
                0x00000000       0xa4 build/mqtt.o
 .text.mqtt_clear_requests
                0x00000000       0x54 build/mqtt.o
 .text.mqtt_init_requests
                0x00000000       0x58 build/mqtt.o
 .text.mqtt_output_append_u8
                0x00000000       0x2c build/mqtt.o
 .text.mqtt_output_append_u16
                0x00000000       0x4e build/mqtt.o
 .text.mqtt_output_append_buf
                0x00000000       0x4c build/mqtt.o
 .text.mqtt_output_append_string
                0x00000000       0x84 build/mqtt.o
 .text.mqtt_output_append_fixed_header
                0x00000000       0x94 build/mqtt.o
 .text.mqtt_output_check_space
                0x00000000       0x68 build/mqtt.o
 .text.mqtt_close
                0x00000000       0xc0 build/mqtt.o
 .text.mqtt_cyclic_timer
                0x00000000      0x130 build/mqtt.o
 .text.pub_ack_rec_rel_response
                0x00000000       0x7a build/mqtt.o
 .text.mqtt_incomming_suback
                0x00000000       0x36 build/mqtt.o
 .text.mqtt_message_received
                0x00000000      0x294 build/mqtt.o
 .text.mqtt_parse_incoming
                0x00000000      0x1ac build/mqtt.o
 .text.mqtt_tcp_recv_cb
                0x00000000       0xbc build/mqtt.o
 .text.mqtt_tcp_sent_cb
                0x00000000       0x74 build/mqtt.o
 .text.mqtt_tcp_err_cb
                0x00000000       0x48 build/mqtt.o
 .text.mqtt_tcp_poll_cb
                0x00000000       0x2c build/mqtt.o
 .text.mqtt_tcp_connect_cb
                0x00000000       0x84 build/mqtt.o
 .text.mqtt_publish
                0x00000000      0x1a4 build/mqtt.o
 .text.mqtt_sub_unsub
                0x00000000      0x1a8 build/mqtt.o
 .text.mqtt_set_inpub_callback
                0x00000000       0x48 build/mqtt.o
 .text.mqtt_client_new
                0x00000000       0x2c build/mqtt.o
 .text.mqtt_client_connect
                0x00000000      0x364 build/mqtt.o
 .text.mqtt_disconnect
                0x00000000       0x48 build/mqtt.o
 .text.mqtt_client_is_connected
                0x00000000       0x40 build/mqtt.o
 .debug_info    0x00000000     0x1a70 build/mqtt.o
 .debug_abbrev  0x00000000      0x2a6 build/mqtt.o
 .debug_loc     0x00000000      0xa9a build/mqtt.o
 .debug_aranges
                0x00000000      0x120 build/mqtt.o
 .debug_ranges  0x00000000      0x158 build/mqtt.o
 .debug_line    0x00000000      0xdfd build/mqtt.o
 .debug_str     0x00000000      0xef9 build/mqtt.o
 .comment       0x00000000       0x4a build/mqtt.o
 .debug_frame   0x00000000      0x4e0 build/mqtt.o
 .ARM.attributes
                0x00000000       0x2d build/mqtt.o
 .text          0x00000000       0x14 build/startup_stm32f207xx.o
 .data          0x00000000        0x0 build/startup_stm32f207xx.o
 .bss           0x00000000        0x0 build/startup_stm32f207xx.o
 .text          0x00000000        0x0 c:/vsarm/armcc/10 2021.10/bin/../lib/gcc/arm-none-eabi/10.3.1/../../../../arm-none-eabi/lib/thumb/v7-m/nofp\libc_nano.a(lib_a-exit.o)
 .data          0x00000000        0x0 c:/vsarm/armcc/10 2021.10/bin/../lib/gcc/arm-none-eabi/10.3.1/../../../../arm-none-eabi/lib/thumb/v7-m/nofp\libc_nano.a(lib_a-exit.o)
 .bss           0x00000000        0x0 c:/vsarm/armcc/10 2021.10/bin/../lib/gcc/arm-none-eabi/10.3.1/../../../../arm-none-eabi/lib/thumb/v7-m/nofp\libc_nano.a(lib_a-exit.o)
 .text.exit     0x00000000       0x28 c:/vsarm/armcc/10 2021.10/bin/../lib/gcc/arm-none-eabi/10.3.1/../../../../arm-none-eabi/lib/thumb/v7-m/nofp\libc_nano.a(lib_a-exit.o)
 .debug_frame   0x00000000       0x28 c:/vsarm/armcc/10 2021.10/bin/../lib/gcc/arm-none-eabi/10.3.1/../../../../arm-none-eabi/lib/thumb/v7-m/nofp\libc_nano.a(lib_a-exit.o)
 .ARM.attributes
                0x00000000       0x2d c:/vsarm/armcc/10 2021.10/bin/../lib/gcc/arm-none-eabi/10.3.1/../../../../arm-none-eabi/lib/thumb/v7-m/nofp\libc_nano.a(lib_a-exit.o)
 .text          0x00000000        0x0 c:/vsarm/armcc/10 2021.10/bin/../lib/gcc/arm-none-eabi/10.3.1/../../../../arm-none-eabi/lib/thumb/v7-m/nofp\libc_nano.a(lib_a-impure.o)
 .data          0x00000000        0x0 c:/vsarm/armcc/10 2021.10/bin/../lib/gcc/arm-none-eabi/10.3.1/../../../../arm-none-eabi/lib/thumb/v7-m/nofp\libc_nano.a(lib_a-impure.o)
 .bss           0x00000000        0x0 c:/vsarm/armcc/10 2021.10/bin/../lib/gcc/arm-none-eabi/10.3.1/../../../../arm-none-eabi/lib/thumb/v7-m/nofp\libc_nano.a(lib_a-impure.o)
 .text          0x00000000        0x0 c:/vsarm/armcc/10 2021.10/bin/../lib/gcc/arm-none-eabi/10.3.1/../../../../arm-none-eabi/lib/thumb/v7-m/nofp\libc_nano.a(lib_a-init.o)
 .data          0x00000000        0x0 c:/vsarm/armcc/10 2021.10/bin/../lib/gcc/arm-none-eabi/10.3.1/../../../../arm-none-eabi/lib/thumb/v7-m/nofp\libc_nano.a(lib_a-init.o)
 .bss           0x00000000        0x0 c:/vsarm/armcc/10 2021.10/bin/../lib/gcc/arm-none-eabi/10.3.1/../../../../arm-none-eabi/lib/thumb/v7-m/nofp\libc_nano.a(lib_a-init.o)
 .text          0x00000000        0x0 c:/vsarm/armcc/10 2021.10/bin/../lib/gcc/arm-none-eabi/10.3.1/../../../../arm-none-eabi/lib/thumb/v7-m/nofp\libc_nano.a(lib_a-memcmp.o)
 .data          0x00000000        0x0 c:/vsarm/armcc/10 2021.10/bin/../lib/gcc/arm-none-eabi/10.3.1/../../../../arm-none-eabi/lib/thumb/v7-m/nofp\libc_nano.a(lib_a-memcmp.o)
 .bss           0x00000000        0x0 c:/vsarm/armcc/10 2021.10/bin/../lib/gcc/arm-none-eabi/10.3.1/../../../../arm-none-eabi/lib/thumb/v7-m/nofp\libc_nano.a(lib_a-memcmp.o)
 .text          0x00000000        0x0 c:/vsarm/armcc/10 2021.10/bin/../lib/gcc/arm-none-eabi/10.3.1/../../../../arm-none-eabi/lib/thumb/v7-m/nofp\libc_nano.a(lib_a-memcpy-stub.o)
 .data          0x00000000        0x0 c:/vsarm/armcc/10 2021.10/bin/../lib/gcc/arm-none-eabi/10.3.1/../../../../arm-none-eabi/lib/thumb/v7-m/nofp\libc_nano.a(lib_a-memcpy-stub.o)
 .bss           0x00000000        0x0 c:/vsarm/armcc/10 2021.10/bin/../lib/gcc/arm-none-eabi/10.3.1/../../../../arm-none-eabi/lib/thumb/v7-m/nofp\libc_nano.a(lib_a-memcpy-stub.o)
 .text          0x00000000        0x0 c:/vsarm/armcc/10 2021.10/bin/../lib/gcc/arm-none-eabi/10.3.1/../../../../arm-none-eabi/lib/thumb/v7-m/nofp\libc_nano.a(lib_a-memset.o)
 .data          0x00000000        0x0 c:/vsarm/armcc/10 2021.10/bin/../lib/gcc/arm-none-eabi/10.3.1/../../../../arm-none-eabi/lib/thumb/v7-m/nofp\libc_nano.a(lib_a-memset.o)
 .bss           0x00000000        0x0 c:/vsarm/armcc/10 2021.10/bin/../lib/gcc/arm-none-eabi/10.3.1/../../../../arm-none-eabi/lib/thumb/v7-m/nofp\libc_nano.a(lib_a-memset.o)
 .text          0x00000000        0x0 c:/vsarm/armcc/10 2021.10/bin/../lib/gcc/arm-none-eabi/10.3.1/../../../../arm-none-eabi/lib/thumb/v7-m/nofp\libc_nano.a(lib_a-printf.o)
 .data          0x00000000        0x0 c:/vsarm/armcc/10 2021.10/bin/../lib/gcc/arm-none-eabi/10.3.1/../../../../arm-none-eabi/lib/thumb/v7-m/nofp\libc_nano.a(lib_a-printf.o)
 .bss           0x00000000        0x0 c:/vsarm/armcc/10 2021.10/bin/../lib/gcc/arm-none-eabi/10.3.1/../../../../arm-none-eabi/lib/thumb/v7-m/nofp\libc_nano.a(lib_a-printf.o)
 .text._printf_r
                0x00000000       0x28 c:/vsarm/armcc/10 2021.10/bin/../lib/gcc/arm-none-eabi/10.3.1/../../../../arm-none-eabi/lib/thumb/v7-m/nofp\libc_nano.a(lib_a-printf.o)
 .text          0x00000000        0x0 c:/vsarm/armcc/10 2021.10/bin/../lib/gcc/arm-none-eabi/10.3.1/../../../../arm-none-eabi/lib/thumb/v7-m/nofp\libc_nano.a(lib_a-sprintf.o)
 .data          0x00000000        0x0 c:/vsarm/armcc/10 2021.10/bin/../lib/gcc/arm-none-eabi/10.3.1/../../../../arm-none-eabi/lib/thumb/v7-m/nofp\libc_nano.a(lib_a-sprintf.o)
 .bss           0x00000000        0x0 c:/vsarm/armcc/10 2021.10/bin/../lib/gcc/arm-none-eabi/10.3.1/../../../../arm-none-eabi/lib/thumb/v7-m/nofp\libc_nano.a(lib_a-sprintf.o)
 .text._sprintf_r
                0x00000000       0x38 c:/vsarm/armcc/10 2021.10/bin/../lib/gcc/arm-none-eabi/10.3.1/../../../../arm-none-eabi/lib/thumb/v7-m/nofp\libc_nano.a(lib_a-sprintf.o)
 .text          0x00000000       0x10 c:/vsarm/armcc/10 2021.10/bin/../lib/gcc/arm-none-eabi/10.3.1/../../../../arm-none-eabi/lib/thumb/v7-m/nofp\libc_nano.a(lib_a-strlen.o)
 .data          0x00000000        0x0 c:/vsarm/armcc/10 2021.10/bin/../lib/gcc/arm-none-eabi/10.3.1/../../../../arm-none-eabi/lib/thumb/v7-m/nofp\libc_nano.a(lib_a-strlen.o)
 .bss           0x00000000        0x0 c:/vsarm/armcc/10 2021.10/bin/../lib/gcc/arm-none-eabi/10.3.1/../../../../arm-none-eabi/lib/thumb/v7-m/nofp\libc_nano.a(lib_a-strlen.o)
 .ARM.attributes
                0x00000000       0x17 c:/vsarm/armcc/10 2021.10/bin/../lib/gcc/arm-none-eabi/10.3.1/../../../../arm-none-eabi/lib/thumb/v7-m/nofp\libc_nano.a(lib_a-strlen.o)
 .text          0x00000000        0x0 c:/vsarm/armcc/10 2021.10/bin/../lib/gcc/arm-none-eabi/10.3.1/../../../../arm-none-eabi/lib/thumb/v7-m/nofp\libc_nano.a(lib_a-strncmp.o)
 .data          0x00000000        0x0 c:/vsarm/armcc/10 2021.10/bin/../lib/gcc/arm-none-eabi/10.3.1/../../../../arm-none-eabi/lib/thumb/v7-m/nofp\libc_nano.a(lib_a-strncmp.o)
 .bss           0x00000000        0x0 c:/vsarm/armcc/10 2021.10/bin/../lib/gcc/arm-none-eabi/10.3.1/../../../../arm-none-eabi/lib/thumb/v7-m/nofp\libc_nano.a(lib_a-strncmp.o)
 .text.strncmp  0x00000000       0x28 c:/vsarm/armcc/10 2021.10/bin/../lib/gcc/arm-none-eabi/10.3.1/../../../../arm-none-eabi/lib/thumb/v7-m/nofp\libc_nano.a(lib_a-strncmp.o)
 .debug_frame   0x00000000       0x28 c:/vsarm/armcc/10 2021.10/bin/../lib/gcc/arm-none-eabi/10.3.1/../../../../arm-none-eabi/lib/thumb/v7-m/nofp\libc_nano.a(lib_a-strncmp.o)
 .ARM.attributes
                0x00000000       0x2d c:/vsarm/armcc/10 2021.10/bin/../lib/gcc/arm-none-eabi/10.3.1/../../../../arm-none-eabi/lib/thumb/v7-m/nofp\libc_nano.a(lib_a-strncmp.o)
 .text          0x00000000        0x0 c:/vsarm/armcc/10 2021.10/bin/../lib/gcc/arm-none-eabi/10.3.1/../../../../arm-none-eabi/lib/thumb/v7-m/nofp\libc_nano.a(lib_a-findfp.o)
 .data          0x00000000        0x0 c:/vsarm/armcc/10 2021.10/bin/../lib/gcc/arm-none-eabi/10.3.1/../../../../arm-none-eabi/lib/thumb/v7-m/nofp\libc_nano.a(lib_a-findfp.o)
 .bss           0x00000000        0x0 c:/vsarm/armcc/10 2021.10/bin/../lib/gcc/arm-none-eabi/10.3.1/../../../../arm-none-eabi/lib/thumb/v7-m/nofp\libc_nano.a(lib_a-findfp.o)
 .text.__fp_lock
                0x00000000       0x18 c:/vsarm/armcc/10 2021.10/bin/../lib/gcc/arm-none-eabi/10.3.1/../../../../arm-none-eabi/lib/thumb/v7-m/nofp\libc_nano.a(lib_a-findfp.o)
 .text.__fp_unlock
                0x00000000       0x18 c:/vsarm/armcc/10 2021.10/bin/../lib/gcc/arm-none-eabi/10.3.1/../../../../arm-none-eabi/lib/thumb/v7-m/nofp\libc_nano.a(lib_a-findfp.o)
 .text._cleanup
                0x00000000        0xc c:/vsarm/armcc/10 2021.10/bin/../lib/gcc/arm-none-eabi/10.3.1/../../../../arm-none-eabi/lib/thumb/v7-m/nofp\libc_nano.a(lib_a-findfp.o)
 .text.__fp_lock_all
                0x00000000       0x1c c:/vsarm/armcc/10 2021.10/bin/../lib/gcc/arm-none-eabi/10.3.1/../../../../arm-none-eabi/lib/thumb/v7-m/nofp\libc_nano.a(lib_a-findfp.o)
 .text.__fp_unlock_all
                0x00000000       0x1c c:/vsarm/armcc/10 2021.10/bin/../lib/gcc/arm-none-eabi/10.3.1/../../../../arm-none-eabi/lib/thumb/v7-m/nofp\libc_nano.a(lib_a-findfp.o)
 .text          0x00000000        0x0 c:/vsarm/armcc/10 2021.10/bin/../lib/gcc/arm-none-eabi/10.3.1/../../../../arm-none-eabi/lib/thumb/v7-m/nofp\libc_nano.a(lib_a-fwalk.o)
 .data          0x00000000        0x0 c:/vsarm/armcc/10 2021.10/bin/../lib/gcc/arm-none-eabi/10.3.1/../../../../arm-none-eabi/lib/thumb/v7-m/nofp\libc_nano.a(lib_a-fwalk.o)
 .bss           0x00000000        0x0 c:/vsarm/armcc/10 2021.10/bin/../lib/gcc/arm-none-eabi/10.3.1/../../../../arm-none-eabi/lib/thumb/v7-m/nofp\libc_nano.a(lib_a-fwalk.o)
 .text._fwalk   0x00000000       0x3a c:/vsarm/armcc/10 2021.10/bin/../lib/gcc/arm-none-eabi/10.3.1/../../../../arm-none-eabi/lib/thumb/v7-m/nofp\libc_nano.a(lib_a-fwalk.o)
 .text          0x00000000        0x0 c:/vsarm/armcc/10 2021.10/bin/../lib/gcc/arm-none-eabi/10.3.1/../../../../arm-none-eabi/lib/thumb/v7-m/nofp\libc_nano.a(lib_a-lock.o)
 .data          0x00000000        0x0 c:/vsarm/armcc/10 2021.10/bin/../lib/gcc/arm-none-eabi/10.3.1/../../../../arm-none-eabi/lib/thumb/v7-m/nofp\libc_nano.a(lib_a-lock.o)
 .bss           0x00000000        0x0 c:/vsarm/armcc/10 2021.10/bin/../lib/gcc/arm-none-eabi/10.3.1/../../../../arm-none-eabi/lib/thumb/v7-m/nofp\libc_nano.a(lib_a-lock.o)
 .text.__retarget_lock_init
                0x00000000        0x2 c:/vsarm/armcc/10 2021.10/bin/../lib/gcc/arm-none-eabi/10.3.1/../../../../arm-none-eabi/lib/thumb/v7-m/nofp\libc_nano.a(lib_a-lock.o)
 .text.__retarget_lock_close
                0x00000000        0x2 c:/vsarm/armcc/10 2021.10/bin/../lib/gcc/arm-none-eabi/10.3.1/../../../../arm-none-eabi/lib/thumb/v7-m/nofp\libc_nano.a(lib_a-lock.o)
 .text.__retarget_lock_close_recursive
                0x00000000        0x2 c:/vsarm/armcc/10 2021.10/bin/../lib/gcc/arm-none-eabi/10.3.1/../../../../arm-none-eabi/lib/thumb/v7-m/nofp\libc_nano.a(lib_a-lock.o)
 .text.__retarget_lock_acquire
                0x00000000        0x2 c:/vsarm/armcc/10 2021.10/bin/../lib/gcc/arm-none-eabi/10.3.1/../../../../arm-none-eabi/lib/thumb/v7-m/nofp\libc_nano.a(lib_a-lock.o)
 .text.__retarget_lock_try_acquire
                0x00000000        0x4 c:/vsarm/armcc/10 2021.10/bin/../lib/gcc/arm-none-eabi/10.3.1/../../../../arm-none-eabi/lib/thumb/v7-m/nofp\libc_nano.a(lib_a-lock.o)
 .text.__retarget_lock_try_acquire_recursive
                0x00000000        0x4 c:/vsarm/armcc/10 2021.10/bin/../lib/gcc/arm-none-eabi/10.3.1/../../../../arm-none-eabi/lib/thumb/v7-m/nofp\libc_nano.a(lib_a-lock.o)
 .text.__retarget_lock_release
                0x00000000        0x2 c:/vsarm/armcc/10 2021.10/bin/../lib/gcc/arm-none-eabi/10.3.1/../../../../arm-none-eabi/lib/thumb/v7-m/nofp\libc_nano.a(lib_a-lock.o)
 .bss.__lock___arc4random_mutex
                0x00000000        0x1 c:/vsarm/armcc/10 2021.10/bin/../lib/gcc/arm-none-eabi/10.3.1/../../../../arm-none-eabi/lib/thumb/v7-m/nofp\libc_nano.a(lib_a-lock.o)
 .bss.__lock___at_quick_exit_mutex
                0x00000000        0x1 c:/vsarm/armcc/10 2021.10/bin/../lib/gcc/arm-none-eabi/10.3.1/../../../../arm-none-eabi/lib/thumb/v7-m/nofp\libc_nano.a(lib_a-lock.o)
 .bss.__lock___atexit_recursive_mutex
                0x00000000        0x1 c:/vsarm/armcc/10 2021.10/bin/../lib/gcc/arm-none-eabi/10.3.1/../../../../arm-none-eabi/lib/thumb/v7-m/nofp\libc_nano.a(lib_a-lock.o)
 .bss.__lock___dd_hash_mutex
                0x00000000        0x1 c:/vsarm/armcc/10 2021.10/bin/../lib/gcc/arm-none-eabi/10.3.1/../../../../arm-none-eabi/lib/thumb/v7-m/nofp\libc_nano.a(lib_a-lock.o)
 .bss.__lock___env_recursive_mutex
                0x00000000        0x1 c:/vsarm/armcc/10 2021.10/bin/../lib/gcc/arm-none-eabi/10.3.1/../../../../arm-none-eabi/lib/thumb/v7-m/nofp\libc_nano.a(lib_a-lock.o)
 .bss.__lock___tz_mutex
                0x00000000        0x1 c:/vsarm/armcc/10 2021.10/bin/../lib/gcc/arm-none-eabi/10.3.1/../../../../arm-none-eabi/lib/thumb/v7-m/nofp\libc_nano.a(lib_a-lock.o)
 .text          0x00000000        0x0 c:/vsarm/armcc/10 2021.10/bin/../lib/gcc/arm-none-eabi/10.3.1/../../../../arm-none-eabi/lib/thumb/v7-m/nofp\libc_nano.a(lib_a-nano-mallocr.o)
 .data          0x00000000        0x0 c:/vsarm/armcc/10 2021.10/bin/../lib/gcc/arm-none-eabi/10.3.1/../../../../arm-none-eabi/lib/thumb/v7-m/nofp\libc_nano.a(lib_a-nano-mallocr.o)
 .bss           0x00000000        0x0 c:/vsarm/armcc/10 2021.10/bin/../lib/gcc/arm-none-eabi/10.3.1/../../../../arm-none-eabi/lib/thumb/v7-m/nofp\libc_nano.a(lib_a-nano-mallocr.o)
 .text          0x00000000        0x0 c:/vsarm/armcc/10 2021.10/bin/../lib/gcc/arm-none-eabi/10.3.1/../../../../arm-none-eabi/lib/thumb/v7-m/nofp\libc_nano.a(lib_a-nano-svfprintf.o)
 .data          0x00000000        0x0 c:/vsarm/armcc/10 2021.10/bin/../lib/gcc/arm-none-eabi/10.3.1/../../../../arm-none-eabi/lib/thumb/v7-m/nofp\libc_nano.a(lib_a-nano-svfprintf.o)
 .bss           0x00000000        0x0 c:/vsarm/armcc/10 2021.10/bin/../lib/gcc/arm-none-eabi/10.3.1/../../../../arm-none-eabi/lib/thumb/v7-m/nofp\libc_nano.a(lib_a-nano-svfprintf.o)
 .text.__ssprint_r
                0x00000000       0xf6 c:/vsarm/armcc/10 2021.10/bin/../lib/gcc/arm-none-eabi/10.3.1/../../../../arm-none-eabi/lib/thumb/v7-m/nofp\libc_nano.a(lib_a-nano-svfprintf.o)
 .text          0x00000000        0x0 c:/vsarm/armcc/10 2021.10/bin/../lib/gcc/arm-none-eabi/10.3.1/../../../../arm-none-eabi/lib/thumb/v7-m/nofp\libc_nano.a(lib_a-nano-vfprintf.o)
 .data          0x00000000        0x0 c:/vsarm/armcc/10 2021.10/bin/../lib/gcc/arm-none-eabi/10.3.1/../../../../arm-none-eabi/lib/thumb/v7-m/nofp\libc_nano.a(lib_a-nano-vfprintf.o)
 .bss           0x00000000        0x0 c:/vsarm/armcc/10 2021.10/bin/../lib/gcc/arm-none-eabi/10.3.1/../../../../arm-none-eabi/lib/thumb/v7-m/nofp\libc_nano.a(lib_a-nano-vfprintf.o)
 .text.__sprint_r
                0x00000000       0x1a c:/vsarm/armcc/10 2021.10/bin/../lib/gcc/arm-none-eabi/10.3.1/../../../../arm-none-eabi/lib/thumb/v7-m/nofp\libc_nano.a(lib_a-nano-vfprintf.o)
 .text.vfprintf
                0x00000000       0x14 c:/vsarm/armcc/10 2021.10/bin/../lib/gcc/arm-none-eabi/10.3.1/../../../../arm-none-eabi/lib/thumb/v7-m/nofp\libc_nano.a(lib_a-nano-vfprintf.o)
 .text          0x00000000        0x0 c:/vsarm/armcc/10 2021.10/bin/../lib/gcc/arm-none-eabi/10.3.1/../../../../arm-none-eabi/lib/thumb/v7-m/nofp\libc_nano.a(lib_a-nano-vfprintf_i.o)
 .data          0x00000000        0x0 c:/vsarm/armcc/10 2021.10/bin/../lib/gcc/arm-none-eabi/10.3.1/../../../../arm-none-eabi/lib/thumb/v7-m/nofp\libc_nano.a(lib_a-nano-vfprintf_i.o)
 .bss           0x00000000        0x0 c:/vsarm/armcc/10 2021.10/bin/../lib/gcc/arm-none-eabi/10.3.1/../../../../arm-none-eabi/lib/thumb/v7-m/nofp\libc_nano.a(lib_a-nano-vfprintf_i.o)
 .text          0x00000000        0x0 c:/vsarm/armcc/10 2021.10/bin/../lib/gcc/arm-none-eabi/10.3.1/../../../../arm-none-eabi/lib/thumb/v7-m/nofp\libc_nano.a(lib_a-sbrkr.o)
 .data          0x00000000        0x0 c:/vsarm/armcc/10 2021.10/bin/../lib/gcc/arm-none-eabi/10.3.1/../../../../arm-none-eabi/lib/thumb/v7-m/nofp\libc_nano.a(lib_a-sbrkr.o)
 .bss           0x00000000        0x0 c:/vsarm/armcc/10 2021.10/bin/../lib/gcc/arm-none-eabi/10.3.1/../../../../arm-none-eabi/lib/thumb/v7-m/nofp\libc_nano.a(lib_a-sbrkr.o)
 .text          0x00000000        0x0 c:/vsarm/armcc/10 2021.10/bin/../lib/gcc/arm-none-eabi/10.3.1/../../../../arm-none-eabi/lib/thumb/v7-m/nofp\libc_nano.a(lib_a-stdio.o)
 .data          0x00000000        0x0 c:/vsarm/armcc/10 2021.10/bin/../lib/gcc/arm-none-eabi/10.3.1/../../../../arm-none-eabi/lib/thumb/v7-m/nofp\libc_nano.a(lib_a-stdio.o)
 .bss           0x00000000        0x0 c:/vsarm/armcc/10 2021.10/bin/../lib/gcc/arm-none-eabi/10.3.1/../../../../arm-none-eabi/lib/thumb/v7-m/nofp\libc_nano.a(lib_a-stdio.o)
 .text.__seofread
                0x00000000        0x4 c:/vsarm/armcc/10 2021.10/bin/../lib/gcc/arm-none-eabi/10.3.1/../../../../arm-none-eabi/lib/thumb/v7-m/nofp\libc_nano.a(lib_a-stdio.o)
 .text          0x00000000        0x0 c:/vsarm/armcc/10 2021.10/bin/../lib/gcc/arm-none-eabi/10.3.1/../../../../arm-none-eabi/lib/thumb/v7-m/nofp\libc_nano.a(lib_a-wbuf.o)
 .data          0x00000000        0x0 c:/vsarm/armcc/10 2021.10/bin/../lib/gcc/arm-none-eabi/10.3.1/../../../../arm-none-eabi/lib/thumb/v7-m/nofp\libc_nano.a(lib_a-wbuf.o)
 .bss           0x00000000        0x0 c:/vsarm/armcc/10 2021.10/bin/../lib/gcc/arm-none-eabi/10.3.1/../../../../arm-none-eabi/lib/thumb/v7-m/nofp\libc_nano.a(lib_a-wbuf.o)
 .text.__swbuf  0x00000000       0x10 c:/vsarm/armcc/10 2021.10/bin/../lib/gcc/arm-none-eabi/10.3.1/../../../../arm-none-eabi/lib/thumb/v7-m/nofp\libc_nano.a(lib_a-wbuf.o)
 .text          0x00000000        0x0 c:/vsarm/armcc/10 2021.10/bin/../lib/gcc/arm-none-eabi/10.3.1/../../../../arm-none-eabi/lib/thumb/v7-m/nofp\libc_nano.a(lib_a-writer.o)
 .data          0x00000000        0x0 c:/vsarm/armcc/10 2021.10/bin/../lib/gcc/arm-none-eabi/10.3.1/../../../../arm-none-eabi/lib/thumb/v7-m/nofp\libc_nano.a(lib_a-writer.o)
 .bss           0x00000000        0x0 c:/vsarm/armcc/10 2021.10/bin/../lib/gcc/arm-none-eabi/10.3.1/../../../../arm-none-eabi/lib/thumb/v7-m/nofp\libc_nano.a(lib_a-writer.o)
 .text          0x00000000        0x0 c:/vsarm/armcc/10 2021.10/bin/../lib/gcc/arm-none-eabi/10.3.1/../../../../arm-none-eabi/lib/thumb/v7-m/nofp\libc_nano.a(lib_a-wsetup.o)
 .data          0x00000000        0x0 c:/vsarm/armcc/10 2021.10/bin/../lib/gcc/arm-none-eabi/10.3.1/../../../../arm-none-eabi/lib/thumb/v7-m/nofp\libc_nano.a(lib_a-wsetup.o)
 .bss           0x00000000        0x0 c:/vsarm/armcc/10 2021.10/bin/../lib/gcc/arm-none-eabi/10.3.1/../../../../arm-none-eabi/lib/thumb/v7-m/nofp\libc_nano.a(lib_a-wsetup.o)
 .text          0x00000000        0x0 c:/vsarm/armcc/10 2021.10/bin/../lib/gcc/arm-none-eabi/10.3.1/../../../../arm-none-eabi/lib/thumb/v7-m/nofp\libc_nano.a(lib_a-closer.o)
 .data          0x00000000        0x0 c:/vsarm/armcc/10 2021.10/bin/../lib/gcc/arm-none-eabi/10.3.1/../../../../arm-none-eabi/lib/thumb/v7-m/nofp\libc_nano.a(lib_a-closer.o)
 .bss           0x00000000        0x0 c:/vsarm/armcc/10 2021.10/bin/../lib/gcc/arm-none-eabi/10.3.1/../../../../arm-none-eabi/lib/thumb/v7-m/nofp\libc_nano.a(lib_a-closer.o)
 .text          0x00000000        0x0 c:/vsarm/armcc/10 2021.10/bin/../lib/gcc/arm-none-eabi/10.3.1/../../../../arm-none-eabi/lib/thumb/v7-m/nofp\libc_nano.a(lib_a-fflush.o)
 .data          0x00000000        0x0 c:/vsarm/armcc/10 2021.10/bin/../lib/gcc/arm-none-eabi/10.3.1/../../../../arm-none-eabi/lib/thumb/v7-m/nofp\libc_nano.a(lib_a-fflush.o)
 .bss           0x00000000        0x0 c:/vsarm/armcc/10 2021.10/bin/../lib/gcc/arm-none-eabi/10.3.1/../../../../arm-none-eabi/lib/thumb/v7-m/nofp\libc_nano.a(lib_a-fflush.o)
 .text.fflush   0x00000000       0x24 c:/vsarm/armcc/10 2021.10/bin/../lib/gcc/arm-none-eabi/10.3.1/../../../../arm-none-eabi/lib/thumb/v7-m/nofp\libc_nano.a(lib_a-fflush.o)
 .text          0x00000000        0x0 c:/vsarm/armcc/10 2021.10/bin/../lib/gcc/arm-none-eabi/10.3.1/../../../../arm-none-eabi/lib/thumb/v7-m/nofp\libc_nano.a(lib_a-fvwrite.o)
 .data          0x00000000        0x0 c:/vsarm/armcc/10 2021.10/bin/../lib/gcc/arm-none-eabi/10.3.1/../../../../arm-none-eabi/lib/thumb/v7-m/nofp\libc_nano.a(lib_a-fvwrite.o)
 .bss           0x00000000        0x0 c:/vsarm/armcc/10 2021.10/bin/../lib/gcc/arm-none-eabi/10.3.1/../../../../arm-none-eabi/lib/thumb/v7-m/nofp\libc_nano.a(lib_a-fvwrite.o)
 .text.__sfvwrite_r
                0x00000000      0x290 c:/vsarm/armcc/10 2021.10/bin/../lib/gcc/arm-none-eabi/10.3.1/../../../../arm-none-eabi/lib/thumb/v7-m/nofp\libc_nano.a(lib_a-fvwrite.o)
 .debug_frame   0x00000000       0x3c c:/vsarm/armcc/10 2021.10/bin/../lib/gcc/arm-none-eabi/10.3.1/../../../../arm-none-eabi/lib/thumb/v7-m/nofp\libc_nano.a(lib_a-fvwrite.o)
 .ARM.attributes
                0x00000000       0x2d c:/vsarm/armcc/10 2021.10/bin/../lib/gcc/arm-none-eabi/10.3.1/../../../../arm-none-eabi/lib/thumb/v7-m/nofp\libc_nano.a(lib_a-fvwrite.o)
 .text          0x00000000        0x0 c:/vsarm/armcc/10 2021.10/bin/../lib/gcc/arm-none-eabi/10.3.1/../../../../arm-none-eabi/lib/thumb/v7-m/nofp\libc_nano.a(lib_a-lseekr.o)
 .data          0x00000000        0x0 c:/vsarm/armcc/10 2021.10/bin/../lib/gcc/arm-none-eabi/10.3.1/../../../../arm-none-eabi/lib/thumb/v7-m/nofp\libc_nano.a(lib_a-lseekr.o)
 .bss           0x00000000        0x0 c:/vsarm/armcc/10 2021.10/bin/../lib/gcc/arm-none-eabi/10.3.1/../../../../arm-none-eabi/lib/thumb/v7-m/nofp\libc_nano.a(lib_a-lseekr.o)
 .text          0x00000000        0x0 c:/vsarm/armcc/10 2021.10/bin/../lib/gcc/arm-none-eabi/10.3.1/../../../../arm-none-eabi/lib/thumb/v7-m/nofp\libc_nano.a(lib_a-makebuf.o)
 .data          0x00000000        0x0 c:/vsarm/armcc/10 2021.10/bin/../lib/gcc/arm-none-eabi/10.3.1/../../../../arm-none-eabi/lib/thumb/v7-m/nofp\libc_nano.a(lib_a-makebuf.o)
 .bss           0x00000000        0x0 c:/vsarm/armcc/10 2021.10/bin/../lib/gcc/arm-none-eabi/10.3.1/../../../../arm-none-eabi/lib/thumb/v7-m/nofp\libc_nano.a(lib_a-makebuf.o)
 .text          0x00000000        0x0 c:/vsarm/armcc/10 2021.10/bin/../lib/gcc/arm-none-eabi/10.3.1/../../../../arm-none-eabi/lib/thumb/v7-m/nofp\libc_nano.a(lib_a-memchr-stub.o)
 .data          0x00000000        0x0 c:/vsarm/armcc/10 2021.10/bin/../lib/gcc/arm-none-eabi/10.3.1/../../../../arm-none-eabi/lib/thumb/v7-m/nofp\libc_nano.a(lib_a-memchr-stub.o)
 .bss           0x00000000        0x0 c:/vsarm/armcc/10 2021.10/bin/../lib/gcc/arm-none-eabi/10.3.1/../../../../arm-none-eabi/lib/thumb/v7-m/nofp\libc_nano.a(lib_a-memchr-stub.o)
 .text          0x00000000        0x0 c:/vsarm/armcc/10 2021.10/bin/../lib/gcc/arm-none-eabi/10.3.1/../../../../arm-none-eabi/lib/thumb/v7-m/nofp\libc_nano.a(lib_a-memmove.o)
 .data          0x00000000        0x0 c:/vsarm/armcc/10 2021.10/bin/../lib/gcc/arm-none-eabi/10.3.1/../../../../arm-none-eabi/lib/thumb/v7-m/nofp\libc_nano.a(lib_a-memmove.o)
 .bss           0x00000000        0x0 c:/vsarm/armcc/10 2021.10/bin/../lib/gcc/arm-none-eabi/10.3.1/../../../../arm-none-eabi/lib/thumb/v7-m/nofp\libc_nano.a(lib_a-memmove.o)
 .text          0x00000000        0x0 c:/vsarm/armcc/10 2021.10/bin/../lib/gcc/arm-none-eabi/10.3.1/../../../../arm-none-eabi/lib/thumb/v7-m/nofp\libc_nano.a(lib_a-mlock.o)
 .data          0x00000000        0x0 c:/vsarm/armcc/10 2021.10/bin/../lib/gcc/arm-none-eabi/10.3.1/../../../../arm-none-eabi/lib/thumb/v7-m/nofp\libc_nano.a(lib_a-mlock.o)
 .bss           0x00000000        0x0 c:/vsarm/armcc/10 2021.10/bin/../lib/gcc/arm-none-eabi/10.3.1/../../../../arm-none-eabi/lib/thumb/v7-m/nofp\libc_nano.a(lib_a-mlock.o)
 .text          0x00000000        0x0 c:/vsarm/armcc/10 2021.10/bin/../lib/gcc/arm-none-eabi/10.3.1/../../../../arm-none-eabi/lib/thumb/v7-m/nofp\libc_nano.a(lib_a-nano-freer.o)
 .data          0x00000000        0x0 c:/vsarm/armcc/10 2021.10/bin/../lib/gcc/arm-none-eabi/10.3.1/../../../../arm-none-eabi/lib/thumb/v7-m/nofp\libc_nano.a(lib_a-nano-freer.o)
 .bss           0x00000000        0x0 c:/vsarm/armcc/10 2021.10/bin/../lib/gcc/arm-none-eabi/10.3.1/../../../../arm-none-eabi/lib/thumb/v7-m/nofp\libc_nano.a(lib_a-nano-freer.o)
 .text          0x00000000        0x0 c:/vsarm/armcc/10 2021.10/bin/../lib/gcc/arm-none-eabi/10.3.1/../../../../arm-none-eabi/lib/thumb/v7-m/nofp\libc_nano.a(lib_a-nano-reallocr.o)
 .data          0x00000000        0x0 c:/vsarm/armcc/10 2021.10/bin/../lib/gcc/arm-none-eabi/10.3.1/../../../../arm-none-eabi/lib/thumb/v7-m/nofp\libc_nano.a(lib_a-nano-reallocr.o)
 .bss           0x00000000        0x0 c:/vsarm/armcc/10 2021.10/bin/../lib/gcc/arm-none-eabi/10.3.1/../../../../arm-none-eabi/lib/thumb/v7-m/nofp\libc_nano.a(lib_a-nano-reallocr.o)
 .text          0x00000000        0x0 c:/vsarm/armcc/10 2021.10/bin/../lib/gcc/arm-none-eabi/10.3.1/../../../../arm-none-eabi/lib/thumb/v7-m/nofp\libc_nano.a(lib_a-readr.o)
 .data          0x00000000        0x0 c:/vsarm/armcc/10 2021.10/bin/../lib/gcc/arm-none-eabi/10.3.1/../../../../arm-none-eabi/lib/thumb/v7-m/nofp\libc_nano.a(lib_a-readr.o)
 .bss           0x00000000        0x0 c:/vsarm/armcc/10 2021.10/bin/../lib/gcc/arm-none-eabi/10.3.1/../../../../arm-none-eabi/lib/thumb/v7-m/nofp\libc_nano.a(lib_a-readr.o)
 .text          0x00000000        0x0 c:/vsarm/armcc/10 2021.10/bin/../lib/gcc/arm-none-eabi/10.3.1/../../../../arm-none-eabi/lib/thumb/v7-m/nofp\libc_nano.a(lib_a-fstatr.o)
 .data          0x00000000        0x0 c:/vsarm/armcc/10 2021.10/bin/../lib/gcc/arm-none-eabi/10.3.1/../../../../arm-none-eabi/lib/thumb/v7-m/nofp\libc_nano.a(lib_a-fstatr.o)
 .bss           0x00000000        0x0 c:/vsarm/armcc/10 2021.10/bin/../lib/gcc/arm-none-eabi/10.3.1/../../../../arm-none-eabi/lib/thumb/v7-m/nofp\libc_nano.a(lib_a-fstatr.o)
 .text          0x00000000        0x0 c:/vsarm/armcc/10 2021.10/bin/../lib/gcc/arm-none-eabi/10.3.1/../../../../arm-none-eabi/lib/thumb/v7-m/nofp\libc_nano.a(lib_a-isattyr.o)
 .data          0x00000000        0x0 c:/vsarm/armcc/10 2021.10/bin/../lib/gcc/arm-none-eabi/10.3.1/../../../../arm-none-eabi/lib/thumb/v7-m/nofp\libc_nano.a(lib_a-isattyr.o)
 .bss           0x00000000        0x0 c:/vsarm/armcc/10 2021.10/bin/../lib/gcc/arm-none-eabi/10.3.1/../../../../arm-none-eabi/lib/thumb/v7-m/nofp\libc_nano.a(lib_a-isattyr.o)
 .text          0x00000000        0x0 c:/vsarm/armcc/10 2021.10/bin/../lib/gcc/arm-none-eabi/10.3.1/../../../../arm-none-eabi/lib/thumb/v7-m/nofp\libc_nano.a(lib_a-nano-msizer.o)
 .data          0x00000000        0x0 c:/vsarm/armcc/10 2021.10/bin/../lib/gcc/arm-none-eabi/10.3.1/../../../../arm-none-eabi/lib/thumb/v7-m/nofp\libc_nano.a(lib_a-nano-msizer.o)
 .bss           0x00000000        0x0 c:/vsarm/armcc/10 2021.10/bin/../lib/gcc/arm-none-eabi/10.3.1/../../../../arm-none-eabi/lib/thumb/v7-m/nofp\libc_nano.a(lib_a-nano-msizer.o)
 .text          0x00000000        0x0 c:/vsarm/armcc/10 2021.10/bin/../lib/gcc/arm-none-eabi/10.3.1/../../../../arm-none-eabi/lib/thumb/v7-m/nofp\libnosys.a(close.o)
 .data          0x00000000        0x0 c:/vsarm/armcc/10 2021.10/bin/../lib/gcc/arm-none-eabi/10.3.1/../../../../arm-none-eabi/lib/thumb/v7-m/nofp\libnosys.a(close.o)
 .bss           0x00000000        0x0 c:/vsarm/armcc/10 2021.10/bin/../lib/gcc/arm-none-eabi/10.3.1/../../../../arm-none-eabi/lib/thumb/v7-m/nofp\libnosys.a(close.o)
 .text          0x00000000        0x0 c:/vsarm/armcc/10 2021.10/bin/../lib/gcc/arm-none-eabi/10.3.1/../../../../arm-none-eabi/lib/thumb/v7-m/nofp\libnosys.a(fstat.o)
 .data          0x00000000        0x0 c:/vsarm/armcc/10 2021.10/bin/../lib/gcc/arm-none-eabi/10.3.1/../../../../arm-none-eabi/lib/thumb/v7-m/nofp\libnosys.a(fstat.o)
 .bss           0x00000000        0x0 c:/vsarm/armcc/10 2021.10/bin/../lib/gcc/arm-none-eabi/10.3.1/../../../../arm-none-eabi/lib/thumb/v7-m/nofp\libnosys.a(fstat.o)
 .text          0x00000000        0x0 c:/vsarm/armcc/10 2021.10/bin/../lib/gcc/arm-none-eabi/10.3.1/../../../../arm-none-eabi/lib/thumb/v7-m/nofp\libnosys.a(isatty.o)
 .data          0x00000000        0x0 c:/vsarm/armcc/10 2021.10/bin/../lib/gcc/arm-none-eabi/10.3.1/../../../../arm-none-eabi/lib/thumb/v7-m/nofp\libnosys.a(isatty.o)
 .bss           0x00000000        0x0 c:/vsarm/armcc/10 2021.10/bin/../lib/gcc/arm-none-eabi/10.3.1/../../../../arm-none-eabi/lib/thumb/v7-m/nofp\libnosys.a(isatty.o)
 .text          0x00000000        0x0 c:/vsarm/armcc/10 2021.10/bin/../lib/gcc/arm-none-eabi/10.3.1/../../../../arm-none-eabi/lib/thumb/v7-m/nofp\libnosys.a(lseek.o)
 .data          0x00000000        0x0 c:/vsarm/armcc/10 2021.10/bin/../lib/gcc/arm-none-eabi/10.3.1/../../../../arm-none-eabi/lib/thumb/v7-m/nofp\libnosys.a(lseek.o)
 .bss           0x00000000        0x0 c:/vsarm/armcc/10 2021.10/bin/../lib/gcc/arm-none-eabi/10.3.1/../../../../arm-none-eabi/lib/thumb/v7-m/nofp\libnosys.a(lseek.o)
 .text          0x00000000        0x0 c:/vsarm/armcc/10 2021.10/bin/../lib/gcc/arm-none-eabi/10.3.1/../../../../arm-none-eabi/lib/thumb/v7-m/nofp\libnosys.a(read.o)
 .data          0x00000000        0x0 c:/vsarm/armcc/10 2021.10/bin/../lib/gcc/arm-none-eabi/10.3.1/../../../../arm-none-eabi/lib/thumb/v7-m/nofp\libnosys.a(read.o)
 .bss           0x00000000        0x0 c:/vsarm/armcc/10 2021.10/bin/../lib/gcc/arm-none-eabi/10.3.1/../../../../arm-none-eabi/lib/thumb/v7-m/nofp\libnosys.a(read.o)
 .text          0x00000000        0x0 c:/vsarm/armcc/10 2021.10/bin/../lib/gcc/arm-none-eabi/10.3.1/../../../../arm-none-eabi/lib/thumb/v7-m/nofp\libnosys.a(sbrk.o)
 .data          0x00000000        0x0 c:/vsarm/armcc/10 2021.10/bin/../lib/gcc/arm-none-eabi/10.3.1/../../../../arm-none-eabi/lib/thumb/v7-m/nofp\libnosys.a(sbrk.o)
 .bss           0x00000000        0x0 c:/vsarm/armcc/10 2021.10/bin/../lib/gcc/arm-none-eabi/10.3.1/../../../../arm-none-eabi/lib/thumb/v7-m/nofp\libnosys.a(sbrk.o)
 .text          0x00000000        0x0 c:/vsarm/armcc/10 2021.10/bin/../lib/gcc/arm-none-eabi/10.3.1/../../../../arm-none-eabi/lib/thumb/v7-m/nofp\libnosys.a(write.o)
 .data          0x00000000        0x0 c:/vsarm/armcc/10 2021.10/bin/../lib/gcc/arm-none-eabi/10.3.1/../../../../arm-none-eabi/lib/thumb/v7-m/nofp\libnosys.a(write.o)
 .bss           0x00000000        0x0 c:/vsarm/armcc/10 2021.10/bin/../lib/gcc/arm-none-eabi/10.3.1/../../../../arm-none-eabi/lib/thumb/v7-m/nofp\libnosys.a(write.o)
 .text          0x00000000        0x0 c:/vsarm/armcc/10 2021.10/bin/../lib/gcc/arm-none-eabi/10.3.1/../../../../arm-none-eabi/lib/thumb/v7-m/nofp\libnosys.a(_exit.o)
 .data          0x00000000        0x0 c:/vsarm/armcc/10 2021.10/bin/../lib/gcc/arm-none-eabi/10.3.1/../../../../arm-none-eabi/lib/thumb/v7-m/nofp\libnosys.a(_exit.o)
 .bss           0x00000000        0x0 c:/vsarm/armcc/10 2021.10/bin/../lib/gcc/arm-none-eabi/10.3.1/../../../../arm-none-eabi/lib/thumb/v7-m/nofp\libnosys.a(_exit.o)
 .text._exit    0x00000000        0x4 c:/vsarm/armcc/10 2021.10/bin/../lib/gcc/arm-none-eabi/10.3.1/../../../../arm-none-eabi/lib/thumb/v7-m/nofp\libnosys.a(_exit.o)
 .debug_frame   0x00000000       0x20 c:/vsarm/armcc/10 2021.10/bin/../lib/gcc/arm-none-eabi/10.3.1/../../../../arm-none-eabi/lib/thumb/v7-m/nofp\libnosys.a(_exit.o)
 .ARM.attributes
                0x00000000       0x2d c:/vsarm/armcc/10 2021.10/bin/../lib/gcc/arm-none-eabi/10.3.1/../../../../arm-none-eabi/lib/thumb/v7-m/nofp\libnosys.a(_exit.o)
 .data          0x00000000        0x0 c:/vsarm/armcc/10 2021.10/bin/../lib/gcc/arm-none-eabi/10.3.1/thumb/v7-m/nofp\libgcc.a(_aeabi_uldivmod.o)
 .bss           0x00000000        0x0 c:/vsarm/armcc/10 2021.10/bin/../lib/gcc/arm-none-eabi/10.3.1/thumb/v7-m/nofp\libgcc.a(_aeabi_uldivmod.o)
 .data          0x00000000        0x0 c:/vsarm/armcc/10 2021.10/bin/../lib/gcc/arm-none-eabi/10.3.1/thumb/v7-m/nofp\libgcc.a(_udivmoddi4.o)
 .bss           0x00000000        0x0 c:/vsarm/armcc/10 2021.10/bin/../lib/gcc/arm-none-eabi/10.3.1/thumb/v7-m/nofp\libgcc.a(_udivmoddi4.o)
 .ARM.extab     0x00000000        0x0 c:/vsarm/armcc/10 2021.10/bin/../lib/gcc/arm-none-eabi/10.3.1/thumb/v7-m/nofp\libgcc.a(_udivmoddi4.o)
 .data          0x00000000        0x0 c:/vsarm/armcc/10 2021.10/bin/../lib/gcc/arm-none-eabi/10.3.1/thumb/v7-m/nofp\libgcc.a(_dvmd_tls.o)
 .bss           0x00000000        0x0 c:/vsarm/armcc/10 2021.10/bin/../lib/gcc/arm-none-eabi/10.3.1/thumb/v7-m/nofp\libgcc.a(_dvmd_tls.o)
 .text          0x00000000        0x0 c:/vsarm/armcc/10 2021.10/bin/../lib/gcc/arm-none-eabi/10.3.1/thumb/v7-m/nofp/crtend.o
 .data          0x00000000        0x0 c:/vsarm/armcc/10 2021.10/bin/../lib/gcc/arm-none-eabi/10.3.1/thumb/v7-m/nofp/crtend.o
 .bss           0x00000000        0x0 c:/vsarm/armcc/10 2021.10/bin/../lib/gcc/arm-none-eabi/10.3.1/thumb/v7-m/nofp/crtend.o
 .rodata        0x00000000       0x24 c:/vsarm/armcc/10 2021.10/bin/../lib/gcc/arm-none-eabi/10.3.1/thumb/v7-m/nofp/crtend.o
 .eh_frame      0x00000000        0x4 c:/vsarm/armcc/10 2021.10/bin/../lib/gcc/arm-none-eabi/10.3.1/thumb/v7-m/nofp/crtend.o
 .ARM.attributes
                0x00000000       0x2d c:/vsarm/armcc/10 2021.10/bin/../lib/gcc/arm-none-eabi/10.3.1/thumb/v7-m/nofp/crtend.o
 .text          0x00000000        0x0 c:/vsarm/armcc/10 2021.10/bin/../lib/gcc/arm-none-eabi/10.3.1/thumb/v7-m/nofp/crtn.o
 .data          0x00000000        0x0 c:/vsarm/armcc/10 2021.10/bin/../lib/gcc/arm-none-eabi/10.3.1/thumb/v7-m/nofp/crtn.o
 .bss           0x00000000        0x0 c:/vsarm/armcc/10 2021.10/bin/../lib/gcc/arm-none-eabi/10.3.1/thumb/v7-m/nofp/crtn.o

Memory Configuration

Name             Origin             Length             Attributes
RAM              0x20000000         0x00020000         xrw
FLASH            0x08000000         0x00100000         xr
*default*        0x00000000         0xffffffff

Linker script and memory map

LOAD c:/vsarm/armcc/10 2021.10/bin/../lib/gcc/arm-none-eabi/10.3.1/thumb/v7-m/nofp/crti.o
LOAD c:/vsarm/armcc/10 2021.10/bin/../lib/gcc/arm-none-eabi/10.3.1/thumb/v7-m/nofp/crtbegin.o
LOAD c:/vsarm/armcc/10 2021.10/bin/../lib/gcc/arm-none-eabi/10.3.1/../../../../arm-none-eabi/lib/thumb/v7-m/nofp/crt0.o
LOAD build/main.o
LOAD build/telnet_server.o
LOAD build/mcli.o
LOAD build/sio.o
LOAD build/freertos.o
LOAD build/stm32f2xx_it.o
LOAD build/stm32f2xx_hal_msp.o
LOAD build/stm32f2xx_hal_timebase_tim.o
LOAD build/ethernetif.o
LOAD build/lwip.o
LOAD build/stm32f2xx_hal_eth.o
LOAD build/stm32f2xx_hal.o
LOAD build/stm32f2xx_hal_rcc.o
LOAD build/stm32f2xx_hal_rcc_ex.o
LOAD build/stm32f2xx_hal_cortex.o
LOAD build/stm32f2xx_hal_flash.o
LOAD build/stm32f2xx_hal_flash_ex.o
LOAD build/stm32f2xx_hal_pwr.o
LOAD build/stm32f2xx_hal_pwr_ex.o
LOAD build/stm32f2xx_hal_gpio.o
LOAD build/stm32f2xx_hal_dma.o
LOAD build/stm32f2xx_hal_dma_ex.o
LOAD build/stm32f2xx_hal_exti.o
LOAD build/stm32f2xx_hal_tim.o
LOAD build/stm32f2xx_hal_tim_ex.o
LOAD build/stm32f2xx_hal_uart.o
LOAD build/system_stm32f2xx.o
LOAD build/croutine.o
LOAD build/event_groups.o
LOAD build/list.o
LOAD build/queue.o
LOAD build/stream_buffer.o
LOAD build/tasks.o
LOAD build/timers.o
LOAD build/cmsis_os2.o
LOAD build/heap_4.o
LOAD build/port.o
LOAD build/auth.o
LOAD build/ccp.o
LOAD build/chap_ms.o
LOAD build/chap-md5.o
LOAD build/chap-new.o
LOAD build/demand.o
LOAD build/eap.o
LOAD build/eui64.o
LOAD build/fsm.o
LOAD build/ipcp.o
LOAD build/ipv6cp.o
LOAD build/lcp.o
LOAD build/magic.o
LOAD build/mppe.o
LOAD build/multilink.o
LOAD build/ppp.o
LOAD build/pppapi.o
LOAD build/pppcrypt.o
LOAD build/pppoe.o
LOAD build/pppol2tp.o
LOAD build/pppos.o
LOAD build/upap.o
LOAD build/utils.o
LOAD build/vj.o
LOAD build/ethernet.o
LOAD build/slipif.o
LOAD build/lowpan6.o
LOAD build/ecp.o
LOAD build/api_lib.o
LOAD build/api_msg.o
LOAD build/err.o
LOAD build/netbuf.o
LOAD build/netdb.o
LOAD build/netifapi.o
LOAD build/sockets.o
LOAD build/tcpip.o
LOAD build/def.o
LOAD build/dns.o
LOAD build/inet_chksum.o
LOAD build/init.o
LOAD build/ip.o
LOAD build/mem.o
LOAD build/memp.o
LOAD build/netif.o
LOAD build/pbuf.o
LOAD build/raw.o
LOAD build/stats.o
LOAD build/sys.o
LOAD build/tcp.o
LOAD build/tcp_in.o
LOAD build/tcp_out.o
LOAD build/timeouts.o
LOAD build/udp.o
LOAD build/autoip.o
LOAD build/dhcp.o
LOAD build/etharp.o
LOAD build/icmp.o
LOAD build/igmp.o
LOAD build/ip4.o
LOAD build/ip4_addr.o
LOAD build/ip4_frag.o
LOAD build/dhcp6.o
LOAD build/ethip6.o
LOAD build/icmp6.o
LOAD build/inet6.o
LOAD build/ip6.o
LOAD build/ip6_addr.o
LOAD build/ip6_frag.o
LOAD build/mld6.o
LOAD build/nd6.o
LOAD build/sys_arch.o
LOAD build/mqtt.o
LOAD build/startup_stm32f207xx.o
LOAD c:/vsarm/armcc/10 2021.10/bin/../lib/gcc/arm-none-eabi/10.3.1/../../../../arm-none-eabi/lib/thumb/v7-m/nofp\libc_nano.a
LOAD c:/vsarm/armcc/10 2021.10/bin/../lib/gcc/arm-none-eabi/10.3.1/../../../../arm-none-eabi/lib/thumb/v7-m/nofp\libm.a
LOAD c:/vsarm/armcc/10 2021.10/bin/../lib/gcc/arm-none-eabi/10.3.1/../../../../arm-none-eabi/lib/thumb/v7-m/nofp\libnosys.a
START GROUP
LOAD c:/vsarm/armcc/10 2021.10/bin/../lib/gcc/arm-none-eabi/10.3.1/thumb/v7-m/nofp\libgcc.a
LOAD c:/vsarm/armcc/10 2021.10/bin/../lib/gcc/arm-none-eabi/10.3.1/../../../../arm-none-eabi/lib/thumb/v7-m/nofp\libc_nano.a
END GROUP
START GROUP
LOAD c:/vsarm/armcc/10 2021.10/bin/../lib/gcc/arm-none-eabi/10.3.1/thumb/v7-m/nofp\libgcc.a
LOAD c:/vsarm/armcc/10 2021.10/bin/../lib/gcc/arm-none-eabi/10.3.1/../../../../arm-none-eabi/lib/thumb/v7-m/nofp\libc_nano.a
END GROUP
LOAD c:/vsarm/armcc/10 2021.10/bin/../lib/gcc/arm-none-eabi/10.3.1/thumb/v7-m/nofp/crtend.o
LOAD c:/vsarm/armcc/10 2021.10/bin/../lib/gcc/arm-none-eabi/10.3.1/thumb/v7-m/nofp/crtn.o
                0x20020000                _estack = (ORIGIN (RAM) + LENGTH (RAM))
                0x00002000                _Min_Heap_Size = 0x2000
                0x00004000                _Min_Stack_Size = 0x4000

.isr_vector     0x08000000      0x184
                0x08000000                . = ALIGN (0x4)
 *(.isr_vector)
 .isr_vector    0x08000000      0x184 build/startup_stm32f207xx.o
                0x08000000                g_pfnVectors
                0x08000184                . = ALIGN (0x4)

.text           0x08000190    0x12df8
                0x08000190                . = ALIGN (0x4)
 *(.text)
 .text          0x08000190       0x40 c:/vsarm/armcc/10 2021.10/bin/../lib/gcc/arm-none-eabi/10.3.1/thumb/v7-m/nofp/crtbegin.o
 .text          0x080001d0       0x30 c:/vsarm/armcc/10 2021.10/bin/../lib/gcc/arm-none-eabi/10.3.1/thumb/v7-m/nofp\libgcc.a(_aeabi_uldivmod.o)
                0x080001d0                __aeabi_uldivmod
 .text          0x08000200      0x2d4 c:/vsarm/armcc/10 2021.10/bin/../lib/gcc/arm-none-eabi/10.3.1/thumb/v7-m/nofp\libgcc.a(_udivmoddi4.o)
                0x08000200                __udivmoddi4
 .text          0x080004d4        0x4 c:/vsarm/armcc/10 2021.10/bin/../lib/gcc/arm-none-eabi/10.3.1/thumb/v7-m/nofp\libgcc.a(_dvmd_tls.o)
                0x080004d4                __aeabi_idiv0
                0x080004d4                __aeabi_ldiv0
 *(.text*)
 .text.main     0x080004d8       0x60 build/main.o
                0x080004d8                main
 .text.SystemClock_Config
                0x08000538       0x8c build/main.o
                0x08000538                SystemClock_Config
 .text.MX_USART2_UART_Init
                0x080005c4       0x54 build/main.o
 .text.MX_USART3_UART_Init
                0x08000618       0x54 build/main.o
 .text.MX_GPIO_Init
                0x0800066c      0x118 build/main.o
 .text.StartDefaultTask
                0x08000784       0x58 build/main.o
                0x08000784                StartDefaultTask
 .text.HAL_TIM_PeriodElapsedCallback
                0x080007dc       0x24 build/main.o
                0x080007dc                HAL_TIM_PeriodElapsedCallback
 .text.Error_Handler
                0x08000800        0xa build/main.o
                0x08000800                Error_Handler
 *fill*         0x0800080a        0x2 
 .text.sio_open
                0x0800080c       0x68 build/sio.o
                0x0800080c                sio_open
 .text.sio_send
                0x08000874       0x34 build/sio.o
                0x08000874                sio_send
 .text.sio_recv
                0x080008a8       0x34 build/sio.o
                0x080008a8                sio_recv
 .text.sio_read
                0x080008dc       0x3a build/sio.o
                0x080008dc                sio_read
 *fill*         0x08000916        0x2 
 .text.HAL_UART_RxCpltCallback
                0x08000918       0x64 build/sio.o
                0x08000918                HAL_UART_RxCpltCallback
 .text.task_rrintErrorUart
                0x0800097c       0x3c build/sio.o
                0x0800097c                task_rrintErrorUart
 .text.NMI_Handler
                0x080009b8        0x6 build/stm32f2xx_it.o
                0x080009b8                NMI_Handler
 .text.HardFault_Handler
                0x080009be        0x6 build/stm32f2xx_it.o
                0x080009be                HardFault_Handler
 .text.MemManage_Handler
                0x080009c4        0x6 build/stm32f2xx_it.o
                0x080009c4                MemManage_Handler
 .text.BusFault_Handler
                0x080009ca        0x6 build/stm32f2xx_it.o
                0x080009ca                BusFault_Handler
 .text.UsageFault_Handler
                0x080009d0        0x6 build/stm32f2xx_it.o
                0x080009d0                UsageFault_Handler
 .text.DebugMon_Handler
                0x080009d6        0xc build/stm32f2xx_it.o
                0x080009d6                DebugMon_Handler
 *fill*         0x080009e2        0x2 
 .text.TIM4_IRQHandler
                0x080009e4       0x14 build/stm32f2xx_it.o
                0x080009e4                TIM4_IRQHandler
 .text.USART2_IRQHandler
                0x080009f8       0x14 build/stm32f2xx_it.o
                0x080009f8                USART2_IRQHandler
 .text.USART3_IRQHandler
                0x08000a0c       0x14 build/stm32f2xx_it.o
                0x08000a0c                USART3_IRQHandler
 .text.ETH_IRQHandler
                0x08000a20       0x14 build/stm32f2xx_it.o
                0x08000a20                ETH_IRQHandler
 .text.HAL_MspInit
                0x08000a34       0x58 build/stm32f2xx_hal_msp.o
                0x08000a34                HAL_MspInit
 .text.HAL_UART_MspInit
                0x08000a8c      0x118 build/stm32f2xx_hal_msp.o
                0x08000a8c                HAL_UART_MspInit
 .text.HAL_InitTick
                0x08000ba4       0xf8 build/stm32f2xx_hal_timebase_tim.o
                0x08000ba4                HAL_InitTick
 .text.HAL_ETH_MspInit
                0x08000c9c      0x19c build/ethernetif.o
                0x08000c9c                HAL_ETH_MspInit
 .text.HAL_ETH_RxCpltCallback
                0x08000e38       0x20 build/ethernetif.o
                0x08000e38                HAL_ETH_RxCpltCallback
 .text.low_level_init
                0x08000e58      0x1a8 build/ethernetif.o
 .text.low_level_output
                0x08001000      0x13c build/ethernetif.o
 .text.low_level_input
                0x0800113c      0x164 build/ethernetif.o
 .text.ethernetif_input
                0x080012a0       0x60 build/ethernetif.o
                0x080012a0                ethernetif_input
 .text.ethernetif_init
                0x08001300       0x5c build/ethernetif.o
                0x08001300                ethernetif_init
 .text.sys_now  0x0800135c        0xe build/ethernetif.o
                0x0800135c                sys_now
 *fill*         0x0800136a        0x2 
 .text.ethernetif_set_link
                0x0800136c       0x78 build/ethernetif.o
                0x0800136c                ethernetif_set_link
 .text.ethernetif_update_config
                0x080013e4       0xf8 build/ethernetif.o
                0x080013e4                ethernetif_update_config
 .text.ethernetif_notify_conn_changed
                0x080014dc       0x12 build/ethernetif.o
                0x080014dc                ethernetif_notify_conn_changed
 *fill*         0x080014ee        0x2 
 .text.MX_LWIP_Init
                0x080014f0      0x2c4 build/lwip.o
                0x080014f0                MX_LWIP_Init
 .text.HAL_ETH_Init
                0x080017b4      0x318 build/stm32f2xx_hal_eth.o
                0x080017b4                HAL_ETH_Init
 .text.HAL_ETH_DMATxDescListInit
                0x08001acc       0xce build/stm32f2xx_hal_eth.o
                0x08001acc                HAL_ETH_DMATxDescListInit
 .text.HAL_ETH_DMARxDescListInit
                0x08001b9a       0xd6 build/stm32f2xx_hal_eth.o
                0x08001b9a                HAL_ETH_DMARxDescListInit
 .text.HAL_ETH_TransmitFrame
                0x08001c70      0x1d0 build/stm32f2xx_hal_eth.o
                0x08001c70                HAL_ETH_TransmitFrame
 .text.HAL_ETH_GetReceivedFrame_IT
                0x08001e40      0x10e build/stm32f2xx_hal_eth.o
                0x08001e40                HAL_ETH_GetReceivedFrame_IT
 .text.HAL_ETH_IRQHandler
                0x08001f4e       0xc8 build/stm32f2xx_hal_eth.o
                0x08001f4e                HAL_ETH_IRQHandler
 .text.HAL_ETH_TxCpltCallback
                0x08002016       0x12 build/stm32f2xx_hal_eth.o
                0x08002016                HAL_ETH_TxCpltCallback
 .text.HAL_ETH_ErrorCallback
                0x08002028       0x12 build/stm32f2xx_hal_eth.o
                0x08002028                HAL_ETH_ErrorCallback
 .text.HAL_ETH_ReadPHYRegister
                0x0800203a       0xd0 build/stm32f2xx_hal_eth.o
                0x0800203a                HAL_ETH_ReadPHYRegister
 .text.HAL_ETH_WritePHYRegister
                0x0800210a       0xcc build/stm32f2xx_hal_eth.o
                0x0800210a                HAL_ETH_WritePHYRegister
 .text.HAL_ETH_Start
                0x080021d6       0x5e build/stm32f2xx_hal_eth.o
                0x080021d6                HAL_ETH_Start
 .text.HAL_ETH_Stop
                0x08002234       0x5e build/stm32f2xx_hal_eth.o
                0x08002234                HAL_ETH_Stop
 *fill*         0x08002292        0x2 
 .text.HAL_ETH_ConfigMAC
                0x08002294      0x1f4 build/stm32f2xx_hal_eth.o
                0x08002294                HAL_ETH_ConfigMAC
 .text.ETH_MACDMAConfig
                0x08002488      0x38c build/stm32f2xx_hal_eth.o
 .text.ETH_MACAddressConfig
                0x08002814       0x6c build/stm32f2xx_hal_eth.o
 .text.ETH_MACTransmissionEnable
                0x08002880       0x3a build/stm32f2xx_hal_eth.o
 .text.ETH_MACTransmissionDisable
                0x080028ba       0x3a build/stm32f2xx_hal_eth.o
 .text.ETH_MACReceptionEnable
                0x080028f4       0x3a build/stm32f2xx_hal_eth.o
 .text.ETH_MACReceptionDisable
                0x0800292e       0x3a build/stm32f2xx_hal_eth.o
 .text.ETH_DMATransmissionEnable
                0x08002968       0x2a build/stm32f2xx_hal_eth.o
 .text.ETH_DMATransmissionDisable
                0x08002992       0x2a build/stm32f2xx_hal_eth.o
 .text.ETH_DMAReceptionEnable
                0x080029bc       0x2a build/stm32f2xx_hal_eth.o
 .text.ETH_DMAReceptionDisable
                0x080029e6       0x2a build/stm32f2xx_hal_eth.o
 .text.ETH_FlushTransmitFIFO
                0x08002a10       0x4a build/stm32f2xx_hal_eth.o
 *fill*         0x08002a5a        0x2 
 .text.ETH_Delay
                0x08002a5c       0x3c build/stm32f2xx_hal_eth.o
 .text.HAL_Init
                0x08002a98       0x44 build/stm32f2xx_hal.o
                0x08002a98                HAL_Init
 .text.HAL_IncTick
                0x08002adc       0x24 build/stm32f2xx_hal.o
                0x08002adc                HAL_IncTick
 .text.HAL_GetTick
                0x08002b00       0x14 build/stm32f2xx_hal.o
                0x08002b00                HAL_GetTick
 .text.HAL_Delay
                0x08002b14       0x48 build/stm32f2xx_hal.o
                0x08002b14                HAL_Delay
 .text.HAL_RCC_OscConfig
                0x08002b5c      0x49c build/stm32f2xx_hal_rcc.o
                0x08002b5c                HAL_RCC_OscConfig
 .text.HAL_RCC_ClockConfig
                0x08002ff8      0x1d8 build/stm32f2xx_hal_rcc.o
                0x08002ff8                HAL_RCC_ClockConfig
 .text.HAL_RCC_GetSysClockFreq
                0x080031d0      0x218 build/stm32f2xx_hal_rcc.o
                0x080031d0                HAL_RCC_GetSysClockFreq
 .text.HAL_RCC_GetHCLKFreq
                0x080033e8       0x14 build/stm32f2xx_hal_rcc.o
                0x080033e8                HAL_RCC_GetHCLKFreq
 .text.HAL_RCC_GetPCLK1Freq
                0x080033fc       0x44 build/stm32f2xx_hal_rcc.o
                0x080033fc                HAL_RCC_GetPCLK1Freq
 .text.HAL_RCC_GetPCLK2Freq
                0x08003440       0x44 build/stm32f2xx_hal_rcc.o
                0x08003440                HAL_RCC_GetPCLK2Freq
 .text.HAL_RCC_GetClockConfig
                0x08003484       0x60 build/stm32f2xx_hal_rcc.o
                0x08003484                HAL_RCC_GetClockConfig
 .text.__NVIC_SetPriorityGrouping
                0x080034e4       0x48 build/stm32f2xx_hal_cortex.o
 .text.__NVIC_GetPriorityGrouping
                0x0800352c       0x1c build/stm32f2xx_hal_cortex.o
 .text.__NVIC_EnableIRQ
                0x08003548       0x38 build/stm32f2xx_hal_cortex.o
 .text.__NVIC_SetPriority
                0x08003580       0x54 build/stm32f2xx_hal_cortex.o
 .text.NVIC_EncodePriority
                0x080035d4       0x64 build/stm32f2xx_hal_cortex.o
 .text.HAL_NVIC_SetPriorityGrouping
                0x08003638       0x16 build/stm32f2xx_hal_cortex.o
                0x08003638                HAL_NVIC_SetPriorityGrouping
 .text.HAL_NVIC_SetPriority
                0x0800364e       0x38 build/stm32f2xx_hal_cortex.o
                0x0800364e                HAL_NVIC_SetPriority
 .text.HAL_NVIC_EnableIRQ
                0x08003686       0x1c build/stm32f2xx_hal_cortex.o
                0x08003686                HAL_NVIC_EnableIRQ
 *fill*         0x080036a2        0x2 
 .text.HAL_GPIO_Init
                0x080036a4      0x33c build/stm32f2xx_hal_gpio.o
                0x080036a4                HAL_GPIO_Init
 .text.HAL_GPIO_WritePin
                0x080039e0       0x30 build/stm32f2xx_hal_gpio.o
                0x080039e0                HAL_GPIO_WritePin
 .text.HAL_DMA_Abort
                0x08003a10       0xe0 build/stm32f2xx_hal_dma.o
                0x08003a10                HAL_DMA_Abort
 .text.HAL_DMA_Abort_IT
                0x08003af0       0x42 build/stm32f2xx_hal_dma.o
                0x08003af0                HAL_DMA_Abort_IT
 .text.HAL_TIM_Base_Init
                0x08003b32       0x9e build/stm32f2xx_hal_tim.o
                0x08003b32                HAL_TIM_Base_Init
 .text.HAL_TIM_Base_MspInit
                0x08003bd0       0x12 build/stm32f2xx_hal_tim.o
                0x08003bd0                HAL_TIM_Base_MspInit
 *fill*         0x08003be2        0x2 
 .text.HAL_TIM_Base_Start_IT
                0x08003be4       0xdc build/stm32f2xx_hal_tim.o
                0x08003be4                HAL_TIM_Base_Start_IT
 .text.HAL_TIM_IRQHandler
                0x08003cc0      0x210 build/stm32f2xx_hal_tim.o
                0x08003cc0                HAL_TIM_IRQHandler
 .text.HAL_TIM_OC_DelayElapsedCallback
                0x08003ed0       0x12 build/stm32f2xx_hal_tim.o
                0x08003ed0                HAL_TIM_OC_DelayElapsedCallback
 .text.HAL_TIM_IC_CaptureCallback
                0x08003ee2       0x12 build/stm32f2xx_hal_tim.o
                0x08003ee2                HAL_TIM_IC_CaptureCallback
 .text.HAL_TIM_PWM_PulseFinishedCallback
                0x08003ef4       0x12 build/stm32f2xx_hal_tim.o
                0x08003ef4                HAL_TIM_PWM_PulseFinishedCallback
 .text.HAL_TIM_TriggerCallback
                0x08003f06       0x12 build/stm32f2xx_hal_tim.o
                0x08003f06                HAL_TIM_TriggerCallback
 .text.TIM_Base_SetConfig
                0x08003f18      0x13c build/stm32f2xx_hal_tim.o
                0x08003f18                TIM_Base_SetConfig
 .text.HAL_TIMEx_CommutCallback
                0x08004054       0x12 build/stm32f2xx_hal_tim_ex.o
                0x08004054                HAL_TIMEx_CommutCallback
 .text.HAL_TIMEx_BreakCallback
                0x08004066       0x12 build/stm32f2xx_hal_tim_ex.o
                0x08004066                HAL_TIMEx_BreakCallback
 .text.HAL_UART_Init
                0x08004078       0x9a build/stm32f2xx_hal_uart.o
                0x08004078                HAL_UART_Init
 .text.HAL_UART_Transmit
                0x08004112      0x124 build/stm32f2xx_hal_uart.o
                0x08004112                HAL_UART_Transmit
 .text.HAL_UART_Receive_IT
                0x08004236       0x60 build/stm32f2xx_hal_uart.o
                0x08004236                HAL_UART_Receive_IT
 *fill*         0x08004296        0x2 
 .text.HAL_UART_IRQHandler
                0x08004298      0x358 build/stm32f2xx_hal_uart.o
                0x08004298                HAL_UART_IRQHandler
 .text.HAL_UART_TxCpltCallback
                0x080045f0       0x12 build/stm32f2xx_hal_uart.o
                0x080045f0                HAL_UART_TxCpltCallback
 .text.HAL_UART_ErrorCallback
                0x08004602       0x12 build/stm32f2xx_hal_uart.o
                0x08004602                HAL_UART_ErrorCallback
 .text.HAL_UARTEx_RxEventCallback
                0x08004614       0x16 build/stm32f2xx_hal_uart.o
                0x08004614                HAL_UARTEx_RxEventCallback
 .text.UART_WaitOnFlagUntilTimeout
                0x0800462a       0x94 build/stm32f2xx_hal_uart.o
 .text.UART_Start_Receive_IT
                0x080046be       0x72 build/stm32f2xx_hal_uart.o
                0x080046be                UART_Start_Receive_IT
 .text.UART_EndRxTransfer
                0x08004730       0x58 build/stm32f2xx_hal_uart.o
 .text.UART_DMAAbortOnError
                0x08004788       0x28 build/stm32f2xx_hal_uart.o
 .text.UART_Transmit_IT
                0x080047b0       0x9e build/stm32f2xx_hal_uart.o
 .text.UART_EndTransmit_IT
                0x0800484e       0x30 build/stm32f2xx_hal_uart.o
 .text.UART_Receive_IT
                0x0800487e      0x152 build/stm32f2xx_hal_uart.o
 .text.UART_SetConfig
                0x080049d0      0x1d4 build/stm32f2xx_hal_uart.o
 .text.SystemInit
                0x08004ba4        0xc build/system_stm32f2xx.o
                0x08004ba4                SystemInit
 .text.vListInitialise
                0x08004bb0       0x3e build/list.o
                0x08004bb0                vListInitialise
 .text.vListInitialiseItem
                0x08004bee       0x18 build/list.o
                0x08004bee                vListInitialiseItem
 .text.vListInsertEnd
                0x08004c06       0x46 build/list.o
                0x08004c06                vListInsertEnd
 .text.vListInsert
                0x08004c4c       0x70 build/list.o
                0x08004c4c                vListInsert
 .text.uxListRemove
                0x08004cbc       0x52 build/list.o
                0x08004cbc                uxListRemove
 *fill*         0x08004d0e        0x2 
 .text.xQueueGenericReset
                0x08004d10       0xd0 build/queue.o
                0x08004d10                xQueueGenericReset
 .text.xQueueGenericCreateStatic
                0x08004de0       0xee build/queue.o
                0x08004de0                xQueueGenericCreateStatic
 .text.xQueueGenericCreate
                0x08004ece       0x7c build/queue.o
                0x08004ece                xQueueGenericCreate
 .text.prvInitialiseNewQueue
                0x08004f4a       0x46 build/queue.o
 .text.prvInitialiseMutex
                0x08004f90       0x34 build/queue.o
 .text.xQueueCreateMutex
                0x08004fc4       0x30 build/queue.o
                0x08004fc4                xQueueCreateMutex
 .text.xQueueCreateMutexStatic
                0x08004ff4       0x36 build/queue.o
                0x08004ff4                xQueueCreateMutexStatic
 .text.xQueueGiveMutexRecursive
                0x0800502a       0x68 build/queue.o
                0x0800502a                xQueueGiveMutexRecursive
 .text.xQueueTakeMutexRecursive
                0x08005092       0x6c build/queue.o
                0x08005092                xQueueTakeMutexRecursive
 .text.xQueueCreateCountingSemaphoreStatic
                0x080050fe       0x6e build/queue.o
                0x080050fe                xQueueCreateCountingSemaphoreStatic
 .text.xQueueCreateCountingSemaphore
                0x0800516c       0x66 build/queue.o
                0x0800516c                xQueueCreateCountingSemaphore
 *fill*         0x080051d2        0x2 
 .text.xQueueGenericSend
                0x080051d4      0x1fc build/queue.o
                0x080051d4                xQueueGenericSend
 .text.xQueueGenericSendFromISR
                0x080053d0      0x130 build/queue.o
                0x080053d0                xQueueGenericSendFromISR
 .text.xQueueGiveFromISR
                0x08005500      0x11a build/queue.o
                0x08005500                xQueueGiveFromISR
 *fill*         0x0800561a        0x2 
 .text.xQueueReceive
                0x0800561c      0x1c0 build/queue.o
                0x0800561c                xQueueReceive
 .text.xQueueSemaphoreTake
                0x080057dc      0x218 build/queue.o
                0x080057dc                xQueueSemaphoreTake
 .text.xQueueReceiveFromISR
                0x080059f4      0x100 build/queue.o
                0x080059f4                xQueueReceiveFromISR
 .text.vQueueDelete
                0x08005af4       0x46 build/queue.o
                0x08005af4                vQueueDelete
 .text.prvGetDisinheritPriorityAfterTimeout
                0x08005b3a       0x2e build/queue.o
 .text.prvCopyDataToQueue
                0x08005b68       0xd4 build/queue.o
 .text.prvCopyDataFromQueue
                0x08005c3c       0x4c build/queue.o
 .text.prvUnlockQueue
                0x08005c88       0xa4 build/queue.o
 .text.prvIsQueueEmpty
                0x08005d2c       0x2c build/queue.o
 .text.prvIsQueueFull
                0x08005d58       0x30 build/queue.o
 .text.vQueueAddToRegistry
                0x08005d88       0x50 build/queue.o
                0x08005d88                vQueueAddToRegistry
 .text.vQueueUnregisterQueue
                0x08005dd8       0x54 build/queue.o
                0x08005dd8                vQueueUnregisterQueue
 .text.vQueueWaitForMessageRestricted
                0x08005e2c       0x68 build/queue.o
                0x08005e2c                vQueueWaitForMessageRestricted
 .text.xTaskCreateStatic
                0x08005e94       0xb8 build/tasks.o
                0x08005e94                xTaskCreateStatic
 .text.xTaskCreate
                0x08005f4c       0x8a build/tasks.o
                0x08005f4c                xTaskCreate
 .text.prvInitialiseNewTask
                0x08005fd6      0x10e build/tasks.o
 .text.prvAddNewTaskToReadyList
                0x080060e4       0xe0 build/tasks.o
 .text.vTaskDelay
                0x080061c4       0x68 build/tasks.o
                0x080061c4                vTaskDelay
 .text.vTaskStartScheduler
                0x0800622c       0xcc build/tasks.o
                0x0800622c                vTaskStartScheduler
 .text.vTaskSuspendAll
                0x080062f8       0x1c build/tasks.o
                0x080062f8                vTaskSuspendAll
 .text.xTaskResumeAll
                0x08006314      0x13c build/tasks.o
                0x08006314                xTaskResumeAll
 .text.xTaskGetTickCount
                0x08006450       0x1c build/tasks.o
                0x08006450                xTaskGetTickCount
 .text.xTaskGetTickCountFromISR
                0x0800646c       0x24 build/tasks.o
                0x0800646c                xTaskGetTickCountFromISR
 .text.xTaskIncrementTick
                0x08006490      0x17c build/tasks.o
                0x08006490                xTaskIncrementTick
 .text.vTaskSwitchContext
                0x0800660c       0xb8 build/tasks.o
                0x0800660c                vTaskSwitchContext
 .text.vTaskPlaceOnEventList
                0x080066c4       0x48 build/tasks.o
                0x080066c4                vTaskPlaceOnEventList
 .text.vTaskPlaceOnEventListRestricted
                0x0800670c       0x58 build/tasks.o
                0x0800670c                vTaskPlaceOnEventListRestricted
 .text.xTaskRemoveFromEventList
                0x08006764       0xc8 build/tasks.o
                0x08006764                xTaskRemoveFromEventList
 .text.vTaskInternalSetTimeOutState
                0x0800682c       0x2c build/tasks.o
                0x0800682c                vTaskInternalSetTimeOutState
 .text.xTaskCheckForTimeOut
                0x08006858       0xc4 build/tasks.o
                0x08006858                xTaskCheckForTimeOut
 .text.vTaskMissedYield
                0x0800691c       0x18 build/tasks.o
                0x0800691c                vTaskMissedYield
 .text.prvIdleTask
                0x08006934       0x30 build/tasks.o
 .text.prvInitialiseTaskLists
                0x08006964       0x80 build/tasks.o
 .text.prvCheckTasksWaitingTermination
                0x080069e4       0x5c build/tasks.o
 .text.prvDeleteTCB
                0x08006a40       0x5e build/tasks.o
 *fill*         0x08006a9e        0x2 
 .text.prvResetNextTaskUnblockTime
                0x08006aa0       0x48 build/tasks.o
 .text.xTaskGetCurrentTaskHandle
                0x08006ae8       0x1c build/tasks.o
                0x08006ae8                xTaskGetCurrentTaskHandle
 .text.xTaskGetSchedulerState
                0x08006b04       0x3c build/tasks.o
                0x08006b04                xTaskGetSchedulerState
 .text.xTaskPriorityInherit
                0x08006b40       0xdc build/tasks.o
                0x08006b40                xTaskPriorityInherit
 .text.xTaskPriorityDisinherit
                0x08006c1c       0xdc build/tasks.o
                0x08006c1c                xTaskPriorityDisinherit
 .text.vTaskPriorityDisinheritAfterTimeout
                0x08006cf8      0x10c build/tasks.o
                0x08006cf8                vTaskPriorityDisinheritAfterTimeout
 .text.pvTaskIncrementMutexHeldCount
                0x08006e04       0x28 build/tasks.o
                0x08006e04                pvTaskIncrementMutexHeldCount
 .text.prvAddCurrentTaskToDelayedList
                0x08006e2c       0xa8 build/tasks.o
 .text.xTimerCreateTimerTask
                0x08006ed4       0x90 build/timers.o
                0x08006ed4                xTimerCreateTimerTask
 .text.xTimerGenericCommand
                0x08006f64       0x9c build/timers.o
                0x08006f64                xTimerGenericCommand
 .text.prvProcessExpiredTimer
                0x08007000       0x80 build/timers.o
 .text.prvTimerTask
                0x08007080       0x24 build/timers.o
 .text.prvProcessTimerOrBlockTask
                0x080070a4       0x9c build/timers.o
 .text.prvGetNextExpireTime
                0x08007140       0x48 build/timers.o
 .text.prvSampleTimeNow
                0x08007188       0x40 build/timers.o
 .text.prvInsertTimerInActiveList
                0x080071c8       0x84 build/timers.o
 .text.prvProcessReceivedCommands
                0x0800724c      0x168 build/timers.o
 .text.prvSwitchTimerLists
                0x080073b4       0xc4 build/timers.o
 .text.prvCheckForValidListAndQueue
                0x08007478       0x80 build/timers.o
 .text.osKernelInitialize
                0x080074f8       0x64 build/cmsis_os2.o
                0x080074f8                osKernelInitialize
 .text.osKernelStart
                0x0800755c       0x68 build/cmsis_os2.o
                0x0800755c                osKernelStart
 .text.osKernelGetTickCount
                0x080075c4       0x50 build/cmsis_os2.o
                0x080075c4                osKernelGetTickCount
 .text.osThreadNew
                0x08007614      0x154 build/cmsis_os2.o
                0x08007614                osThreadNew
 .text.osDelay  0x08007768       0x5c build/cmsis_os2.o
                0x08007768                osDelay
 .text.osMutexNew
                0x080077c4      0x134 build/cmsis_os2.o
                0x080077c4                osMutexNew
 .text.osMutexAcquire
                0x080078f8       0xbc build/cmsis_os2.o
                0x080078f8                osMutexAcquire
 .text.osMutexRelease
                0x080079b4       0xa0 build/cmsis_os2.o
                0x080079b4                osMutexRelease
 .text.osSemaphoreNew
                0x08007a54      0x138 build/cmsis_os2.o
                0x08007a54                osSemaphoreNew
 .text.osSemaphoreAcquire
                0x08007b8c       0xcc build/cmsis_os2.o
                0x08007b8c                osSemaphoreAcquire
 .text.osSemaphoreRelease
                0x08007c58       0xb0 build/cmsis_os2.o
                0x08007c58                osSemaphoreRelease
 .text.osMessageQueueNew
                0x08007d08      0x10c build/cmsis_os2.o
                0x08007d08                osMessageQueueNew
 .text.osMessageQueuePut
                0x08007e14       0xe8 build/cmsis_os2.o
                0x08007e14                osMessageQueuePut
 .text.osMessageQueueGet
                0x08007efc       0xe4 build/cmsis_os2.o
                0x08007efc                osMessageQueueGet
 .text.vApplicationGetIdleTaskMemory
                0x08007fe0       0x30 build/cmsis_os2.o
                0x08007fe0                vApplicationGetIdleTaskMemory
 .text.vApplicationGetTimerTaskMemory
                0x08008010       0x34 build/cmsis_os2.o
                0x08008010                vApplicationGetTimerTaskMemory
 .text.pvPortMalloc
                0x08008044      0x188 build/heap_4.o
                0x08008044                pvPortMalloc
 .text.vPortFree
                0x080081cc       0xb4 build/heap_4.o
                0x080081cc                vPortFree
 .text.prvHeapInit
                0x08008280       0xc4 build/heap_4.o
 .text.prvInsertBlockIntoFreeList
                0x08008344       0xb0 build/heap_4.o
 .text.pxPortInitialiseStack
                0x080083f4       0x58 build/port.o
                0x080083f4                pxPortInitialiseStack
 .text.prvTaskExitError
                0x0800844c       0x58 build/port.o
 *fill*         0x080084a4        0xc 
 .text.SVC_Handler
                0x080084b0       0x28 build/port.o
                0x080084b0                SVC_Handler
 .text.prvPortStartFirstTask
                0x080084d8       0x20 build/port.o
 .text.xPortStartScheduler
                0x080084f8       0xe4 build/port.o
                0x080084f8                xPortStartScheduler
 .text.vPortEnterCritical
                0x080085dc       0x60 build/port.o
                0x080085dc                vPortEnterCritical
 .text.vPortExitCritical
                0x0800863c       0x50 build/port.o
                0x0800863c                vPortExitCritical
 *fill*         0x0800868c        0x4 
 .text.PendSV_Handler
                0x08008690       0x48 build/port.o
                0x08008690                PendSV_Handler
 .text.SysTick_Handler
                0x080086d8       0x44 build/port.o
                0x080086d8                SysTick_Handler
 .text.vPortSetupTimerInterrupt
                0x0800871c       0x44 build/port.o
                0x0800871c                vPortSetupTimerInterrupt
 .text.vPortValidateInterruptPriority
                0x08008760       0x7c build/port.o
                0x08008760                vPortValidateInterruptPriority
 .text.ethernet_input
                0x080087dc      0x12c build/ethernet.o
                0x080087dc                ethernet_input
 .text.ethernet_output
                0x08008908       0x90 build/ethernet.o
                0x08008908                ethernet_output
 .text.slipif_output
                0x08008998      0x104 build/slipif.o
 .text.slipif_output_v4
                0x08008a9c       0x1e build/slipif.o
 *fill*         0x08008aba        0x2 
 .text.slipif_rxbyte
                0x08008abc      0x19c build/slipif.o
 .text.slipif_rxbyte_input
                0x08008c58       0x3c build/slipif.o
 .text.slipif_loop_thread
                0x08008c94       0x34 build/slipif.o
 .text.slipif_init
                0x08008cc8       0xc8 build/slipif.o
                0x08008cc8                slipif_init
 .text.tcpip_thread
                0x08008d90       0xd4 build/tcpip.o
 .text.tcpip_inpkt
                0x08008e64       0x88 build/tcpip.o
                0x08008e64                tcpip_inpkt
 .text.tcpip_input
                0x08008eec       0x44 build/tcpip.o
                0x08008eec                tcpip_input
 .text.tcpip_callback_with_block
                0x08008f30       0x94 build/tcpip.o
                0x08008f30                tcpip_callback_with_block
 .text.tcpip_init
                0x08008fc4       0x94 build/tcpip.o
                0x08008fc4                tcpip_init
 .text.lwip_htons
                0x08009058       0x1a build/def.o
                0x08009058                lwip_htons
 .text.lwip_htonl
                0x08009072       0x30 build/def.o
                0x08009072                lwip_htonl
 .text.lwip_init
                0x080090a2       0x2e build/init.o
                0x080090a2                lwip_init
 .text.plug_holes
                0x080090d0      0x130 build/mem.o
 .text.mem_init
                0x08009200       0xa0 build/mem.o
                0x08009200                mem_init
 .text.mem_free
                0x080092a0       0xdc build/mem.o
                0x080092a0                mem_free
 .text.mem_trim
                0x0800937c      0x1d4 build/mem.o
                0x0800937c                mem_trim
 .text.mem_malloc
                0x08009550      0x1e8 build/mem.o
                0x08009550                mem_malloc
 .text.memp_init_pool
                0x08009738       0x5e build/memp.o
                0x08009738                memp_init_pool
 *fill*         0x08009796        0x2 
 .text.memp_init
                0x08009798       0x34 build/memp.o
                0x08009798                memp_init
 .text.do_memp_malloc_pool
                0x080097cc       0x64 build/memp.o
 .text.memp_malloc
                0x08009830       0x4c build/memp.o
                0x08009830                memp_malloc
 .text.do_memp_free_pool
                0x0800987c       0x58 build/memp.o
 .text.memp_free
                0x080098d4       0x54 build/memp.o
                0x080098d4                memp_free
 .text.netif_init
                0x08009928        0xc build/netif.o
                0x08009928                netif_init
 .text.netif_add
                0x08009934       0xb0 build/netif.o
                0x08009934                netif_add
 .text.netif_set_addr
                0x080099e4       0x58 build/netif.o
                0x080099e4                netif_set_addr
 .text.netif_set_ipaddr
                0x08009a3c       0x70 build/netif.o
                0x08009a3c                netif_set_ipaddr
 .text.netif_set_gw
                0x08009aac       0x26 build/netif.o
                0x08009aac                netif_set_gw
 .text.netif_set_netmask
                0x08009ad2       0x26 build/netif.o
                0x08009ad2                netif_set_netmask
 .text.netif_set_default
                0x08009af8       0x1c build/netif.o
                0x08009af8                netif_set_default
 .text.netif_set_up
                0x08009b14       0x46 build/netif.o
                0x08009b14                netif_set_up
 .text.netif_issue_reports
                0x08009b5a       0x42 build/netif.o
 .text.netif_set_down
                0x08009b9c       0x44 build/netif.o
                0x08009b9c                netif_set_down
 .text.netif_set_link_up
                0x08009be0       0x56 build/netif.o
                0x08009be0                netif_set_link_up
 .text.netif_set_link_down
                0x08009c36       0x40 build/netif.o
                0x08009c36                netif_set_link_down
 .text.netif_set_link_callback
                0x08009c76       0x20 build/netif.o
                0x08009c76                netif_set_link_callback
 *fill*         0x08009c96        0x2 
 .text.pbuf_free_ooseq
                0x08009c98       0x54 build/pbuf.o
 .text.pbuf_free_ooseq_callback
                0x08009cec       0x14 build/pbuf.o
 .text.pbuf_pool_is_empty
                0x08009d00       0x58 build/pbuf.o
 .text.pbuf_alloc
                0x08009d58      0x334 build/pbuf.o
                0x08009d58                pbuf_alloc
 .text.pbuf_alloced_custom
                0x0800a08c       0xd4 build/pbuf.o
                0x0800a08c                pbuf_alloced_custom
 .text.pbuf_realloc
                0x0800a160      0x15c build/pbuf.o
                0x0800a160                pbuf_realloc
 .text.pbuf_header_impl
                0x0800a2bc      0x144 build/pbuf.o
 .text.pbuf_header
                0x0800a400       0x24 build/pbuf.o
                0x0800a400                pbuf_header
 .text.pbuf_header_force
                0x0800a424       0x24 build/pbuf.o
                0x0800a424                pbuf_header_force
 .text.pbuf_free
                0x0800a448      0x134 build/pbuf.o
                0x0800a448                pbuf_free
 .text.pbuf_clen
                0x0800a57c       0x2c build/pbuf.o
                0x0800a57c                pbuf_clen
 .text.pbuf_ref
                0x0800a5a8       0x50 build/pbuf.o
                0x0800a5a8                pbuf_ref
 .text.pbuf_cat
                0x0800a5f8       0xac build/pbuf.o
                0x0800a5f8                pbuf_cat
 .text.pbuf_copy
                0x0800a6a4      0x198 build/pbuf.o
                0x0800a6a4                pbuf_copy
 .text.pbuf_copy_partial
                0x0800a83c       0xf4 build/pbuf.o
                0x0800a83c                pbuf_copy_partial
 .text.tcp_init
                0x0800a930        0xc build/tcp.o
                0x0800a930                tcp_init
 .text.tcp_tmr  0x0800a93c       0x2c build/tcp.o
                0x0800a93c                tcp_tmr
 .text.tcp_remove_listener
                0x0800a968       0x38 build/tcp.o
 .text.tcp_listen_closed
                0x0800a9a0       0x70 build/tcp.o
 .text.tcp_close_shutdown
                0x0800aa10      0x1d4 build/tcp.o
 .text.tcp_close_shutdown_fin
                0x0800abe4       0xd4 build/tcp.o
 .text.tcp_close
                0x0800acb8       0x30 build/tcp.o
                0x0800acb8                tcp_close
 .text.tcp_abandon
                0x0800ace8      0x164 build/tcp.o
                0x0800ace8                tcp_abandon
 .text.tcp_abort
                0x0800ae4c       0x18 build/tcp.o
                0x0800ae4c                tcp_abort
 .text.tcp_update_rcv_ann_wnd
                0x0800ae64       0x9c build/tcp.o
                0x0800ae64                tcp_update_rcv_ann_wnd
 .text.tcp_recved
                0x0800af00       0xb4 build/tcp.o
                0x0800af00                tcp_recved
 .text.tcp_slowtmr
                0x0800afb4      0x584 build/tcp.o
                0x0800afb4                tcp_slowtmr
 .text.tcp_fasttmr
                0x0800b538       0xc8 build/tcp.o
                0x0800b538                tcp_fasttmr
 .text.tcp_process_refused_data
                0x0800b600       0xd2 build/tcp.o
                0x0800b600                tcp_process_refused_data
 .text.tcp_segs_free
                0x0800b6d2       0x2a build/tcp.o
                0x0800b6d2                tcp_segs_free
 .text.tcp_seg_free
                0x0800b6fc       0x30 build/tcp.o
                0x0800b6fc                tcp_seg_free
 .text.tcp_seg_copy
                0x0800b72c       0x38 build/tcp.o
                0x0800b72c                tcp_seg_copy
 .text.tcp_recv_null
                0x0800b764       0x44 build/tcp.o
                0x0800b764                tcp_recv_null
 .text.tcp_kill_prio
                0x0800b7a8       0x84 build/tcp.o
 .text.tcp_kill_state
                0x0800b82c       0x94 build/tcp.o
 .text.tcp_kill_timewait
                0x0800b8c0       0x60 build/tcp.o
 .text.tcp_alloc
                0x0800b920      0x104 build/tcp.o
                0x0800b920                tcp_alloc
 .text.tcp_pcb_purge
                0x0800ba24       0x82 build/tcp.o
                0x0800ba24                tcp_pcb_purge
 *fill*         0x0800baa6        0x2 
 .text.tcp_pcb_remove
                0x0800baa8       0xf8 build/tcp.o
                0x0800baa8                tcp_pcb_remove
 .text.tcp_next_iss
                0x0800bba0       0x2c build/tcp.o
                0x0800bba0                tcp_next_iss
 .text.tcp_eff_send_mss_impl
                0x0800bbcc       0x48 build/tcp.o
                0x0800bbcc                tcp_eff_send_mss_impl
 .text.tcp_netif_ip_addr_changed_pcblist
                0x0800bc14       0x44 build/tcp.o
 .text.tcp_netif_ip_addr_changed
                0x0800bc58       0x80 build/tcp.o
                0x0800bc58                tcp_netif_ip_addr_changed
 .text.tcp_input
                0x0800bcd8      0x790 build/tcp_in.o
                0x0800bcd8                tcp_input
 .text.tcp_input_delayed_close
                0x0800c468       0x64 build/tcp_in.o
 .text.tcp_listen_input
                0x0800c4cc      0x1c0 build/tcp_in.o
 .text.tcp_timewait_input
                0x0800c68c       0xd0 build/tcp_in.o
 .text.tcp_process
                0x0800c75c      0x768 build/tcp_in.o
 .text.tcp_oos_insert_segment
                0x0800cec4       0xec build/tcp_in.o
 .text.tcp_receive
                0x0800cfb0      0xff4 build/tcp_in.o
 .text.tcp_getoptbyte
                0x0800dfa4       0x74 build/tcp_in.o
 .text.tcp_parseopt
                0x0800e018       0xcc build/tcp_in.o
 .text.tcp_trigger_input_pcb_close
                0x0800e0e4       0x20 build/tcp_in.o
                0x0800e0e4                tcp_trigger_input_pcb_close
 .text.tcp_output_alloc_header
                0x0800e104       0xf4 build/tcp_out.o
 .text.tcp_send_fin
                0x0800e1f8       0x7e build/tcp_out.o
                0x0800e1f8                tcp_send_fin
 *fill*         0x0800e276        0x2 
 .text.tcp_create_segment
                0x0800e278      0x110 build/tcp_out.o
 .text.tcp_enqueue_flags
                0x0800e388      0x1f8 build/tcp_out.o
                0x0800e388                tcp_enqueue_flags
 .text.tcp_send_empty_ack
                0x0800e580       0xb8 build/tcp_out.o
                0x0800e580                tcp_send_empty_ack
 .text.tcp_output
                0x0800e638      0x3cc build/tcp_out.o
                0x0800e638                tcp_output
 .text.tcp_output_segment
                0x0800ea04      0x13c build/tcp_out.o
 .text.tcp_rst  0x0800eb40       0xec build/tcp_out.o
                0x0800eb40                tcp_rst
 .text.tcp_rexmit_rto
                0x0800ec2c       0x6c build/tcp_out.o
                0x0800ec2c                tcp_rexmit_rto
 .text.tcp_rexmit
                0x0800ec98       0xa0 build/tcp_out.o
                0x0800ec98                tcp_rexmit
 .text.tcp_rexmit_fast
                0x0800ed38       0x9c build/tcp_out.o
                0x0800ed38                tcp_rexmit_fast
 .text.tcp_keepalive
                0x0800edd4       0x7a build/tcp_out.o
                0x0800edd4                tcp_keepalive
 .text.tcp_zero_window_probe
                0x0800ee4e      0x138 build/tcp_out.o
                0x0800ee4e                tcp_zero_window_probe
 *fill*         0x0800ef86        0x2 
 .text.tcpip_tcp_timer
                0x0800ef88       0x48 build/timeouts.o
 .text.tcp_timer_needed
                0x0800efd0       0x40 build/timeouts.o
                0x0800efd0                tcp_timer_needed
 .text.cyclic_timer
                0x0800f010       0x2c build/timeouts.o
 .text.sys_timeouts_init
                0x0800f03c       0x50 build/timeouts.o
                0x0800f03c                sys_timeouts_init
 .text.sys_timeout
                0x0800f08c      0x148 build/timeouts.o
                0x0800f08c                sys_timeout
 .text.sys_check_timeouts
                0x0800f1d4       0xa4 build/timeouts.o
 .text.sys_timeouts_sleeptime
                0x0800f278       0x4c build/timeouts.o
 .text.sys_timeouts_mbox_fetch
                0x0800f2c4       0x4c build/timeouts.o
                0x0800f2c4                sys_timeouts_mbox_fetch
 .text.udp_init
                0x0800f310        0xc build/udp.o
                0x0800f310                udp_init
 .text.udp_input_local_match
                0x0800f31c       0x74 build/udp.o
 .text.udp_input
                0x0800f390      0x1cc build/udp.o
                0x0800f390                udp_input
 .text.udp_netif_ip_addr_changed
                0x0800f55c       0x5c build/udp.o
                0x0800f55c                udp_netif_ip_addr_changed
 .text.etharp_free_entry
                0x0800f5b8       0x64 build/etharp.o
 .text.etharp_tmr
                0x0800f61c      0x150 build/etharp.o
                0x0800f61c                etharp_tmr
 .text.etharp_find_entry
                0x0800f76c      0x294 build/etharp.o
 .text.etharp_update_arp_entry
                0x0800fa00      0x14c build/etharp.o
 .text.etharp_cleanup_netif
                0x0800fb4c       0x64 build/etharp.o
                0x0800fb4c                etharp_cleanup_netif
 .text.etharp_input
                0x0800fbb0      0x114 build/etharp.o
                0x0800fbb0                etharp_input
 .text.etharp_output_to_arp_index
                0x0800fcc4      0x134 build/etharp.o
 .text.etharp_output
                0x0800fdf8      0x1dc build/etharp.o
                0x0800fdf8                etharp_output
 .text.etharp_query
                0x0800ffd4      0x290 build/etharp.o
                0x0800ffd4                etharp_query
 .text.etharp_raw
                0x08010264      0x118 build/etharp.o
 .text.etharp_request_dst
                0x0801037c       0x44 build/etharp.o
 .text.etharp_request
                0x080103c0       0x24 build/etharp.o
                0x080103c0                etharp_request
 .text.icmp_input
                0x080103e4      0x20c build/icmp.o
                0x080103e4                icmp_input
 .text.icmp_dest_unreach
                0x080105f0       0x20 build/icmp.o
                0x080105f0                icmp_dest_unreach
 .text.icmp_time_exceeded
                0x08010610       0x20 build/icmp.o
                0x08010610                icmp_time_exceeded
 .text.icmp_send_response
                0x08010630       0xd0 build/icmp.o
 .text.ip4_route
                0x08010700       0xd4 build/ip4.o
                0x08010700                ip4_route
 .text.ip4_input
                0x080107d4      0x280 build/ip4.o
                0x080107d4                ip4_input
 .text.ip4_output_if
                0x08010a54       0x54 build/ip4.o
                0x08010a54                ip4_output_if
 .text.ip4_output_if_src
                0x08010aa8      0x150 build/ip4.o
                0x08010aa8                ip4_output_if_src
 .text.ip4_addr_isbroadcast_u32
                0x08010bf8       0x80 build/ip4_addr.o
                0x08010bf8                ip4_addr_isbroadcast_u32
 .text.ip4addr_ntoa
                0x08010c78       0x20 build/ip4_addr.o
                0x08010c78                ip4addr_ntoa
 .text.ip4addr_ntoa_r
                0x08010c98      0x100 build/ip4_addr.o
                0x08010c98                ip4addr_ntoa_r
 .text.ip_reass_tmr
                0x08010d98       0x58 build/ip4_frag.o
                0x08010d98                ip_reass_tmr
 .text.ip_reass_free_complete_datagram
                0x08010df0      0x148 build/ip4_frag.o
 .text.ip_reass_remove_oldest_datagram
                0x08010f38       0xc4 build/ip4_frag.o
 .text.ip_reass_enqueue_new_datagram
                0x08010ffc       0x74 build/ip4_frag.o
 .text.ip_reass_dequeue_datagram
                0x08011070       0x5c build/ip4_frag.o
 .text.ip_reass_chain_frag_into_datagram_and_validate
                0x080110cc      0x2d4 build/ip4_frag.o
 .text.ip4_reass
                0x080113a0      0x2a8 build/ip4_frag.o
                0x080113a0                ip4_reass
 .text.ip_frag_alloc_pbuf_custom_ref
                0x08011648       0x10 build/ip4_frag.o
 .text.ip_frag_free_pbuf_custom_ref
                0x08011658       0x38 build/ip4_frag.o
 .text.ipfrag_free_pbuf_custom
                0x08011690       0x68 build/ip4_frag.o
 .text.ip4_frag
                0x080116f8      0x240 build/ip4_frag.o
                0x080116f8                ip4_frag
 .text.sys_mbox_new
                0x08011938       0x34 build/sys_arch.o
                0x08011938                sys_mbox_new
 .text.sys_mbox_post
                0x0801196c       0x2c build/sys_arch.o
                0x0801196c                sys_mbox_post
 .text.sys_mbox_trypost
                0x08011998       0x34 build/sys_arch.o
                0x08011998                sys_mbox_trypost
 .text.sys_arch_mbox_fetch
                0x080119cc       0x62 build/sys_arch.o
                0x080119cc                sys_arch_mbox_fetch
 .text.sys_mbox_valid
                0x08011a2e       0x20 build/sys_arch.o
                0x08011a2e                sys_mbox_valid
 *fill*         0x08011a4e        0x2 
 .text.sys_init
                0x08011a50       0x18 build/sys_arch.o
                0x08011a50                sys_init
 .text.sys_mutex_new
                0x08011a68       0x2c build/sys_arch.o
                0x08011a68                sys_mutex_new
 .text.sys_mutex_lock
                0x08011a94       0x1e build/sys_arch.o
                0x08011a94                sys_mutex_lock
 .text.sys_mutex_unlock
                0x08011ab2       0x1a build/sys_arch.o
                0x08011ab2                sys_mutex_unlock
 .text.sys_thread_new
                0x08011acc       0x40 build/sys_arch.o
                0x08011acc                sys_thread_new
 .text.sys_arch_protect
                0x08011b0c       0x1c build/sys_arch.o
                0x08011b0c                sys_arch_protect
 .text.sys_arch_unprotect
                0x08011b28       0x20 build/sys_arch.o
                0x08011b28                sys_arch_unprotect
 .text.Reset_Handler
                0x08011b48       0x50 build/startup_stm32f207xx.o
                0x08011b48                Reset_Handler
 .text.Default_Handler
                0x08011b98        0x2 build/startup_stm32f207xx.o
                0x08011b98                RTC_Alarm_IRQHandler
                0x08011b98                HASH_RNG_IRQHandler
                0x08011b98                EXTI2_IRQHandler
                0x08011b98                TIM8_CC_IRQHandler
                0x08011b98                TIM1_CC_IRQHandler
                0x08011b98                DMA2_Stream5_IRQHandler
                0x08011b98                DMA1_Stream5_IRQHandler
                0x08011b98                PVD_IRQHandler
                0x08011b98                SDIO_IRQHandler
                0x08011b98                TAMP_STAMP_IRQHandler
                0x08011b98                CAN2_RX1_IRQHandler
                0x08011b98                EXTI3_IRQHandler
                0x08011b98                TIM8_TRG_COM_TIM14_IRQHandler
                0x08011b98                TIM1_UP_TIM10_IRQHandler
                0x08011b98                TIM8_UP_TIM13_IRQHandler
                0x08011b98                I2C3_ER_IRQHandler
                0x08011b98                EXTI0_IRQHandler
                0x08011b98                I2C2_EV_IRQHandler
                0x08011b98                DMA1_Stream2_IRQHandler
                0x08011b98                CAN1_RX0_IRQHandler
                0x08011b98                OTG_HS_WKUP_IRQHandler
                0x08011b98                CAN2_SCE_IRQHandler
                0x08011b98                DMA2_Stream2_IRQHandler
                0x08011b98                SPI1_IRQHandler
                0x08011b98                TIM6_DAC_IRQHandler
                0x08011b98                TIM1_BRK_TIM9_IRQHandler
                0x08011b98                DCMI_IRQHandler
                0x08011b98                CAN2_RX0_IRQHandler
                0x08011b98                DMA2_Stream3_IRQHandler
                0x08011b98                USART6_IRQHandler
                0x08011b98                CAN1_RX1_IRQHandler
                0x08011b98                UART5_IRQHandler
                0x08011b98                DMA2_Stream0_IRQHandler
                0x08011b98                I2C1_EV_IRQHandler
                0x08011b98                DMA1_Stream6_IRQHandler
                0x08011b98                DMA1_Stream1_IRQHandler
                0x08011b98                UART4_IRQHandler
                0x08011b98                TIM3_IRQHandler
                0x08011b98                RCC_IRQHandler
                0x08011b98                TIM8_BRK_TIM12_IRQHandler
                0x08011b98                Default_Handler
                0x08011b98                EXTI15_10_IRQHandler
                0x08011b98                ADC_IRQHandler
                0x08011b98                DMA1_Stream7_IRQHandler
                0x08011b98                TIM7_IRQHandler
                0x08011b98                CAN2_TX_IRQHandler
                0x08011b98                TIM5_IRQHandler
                0x08011b98                DMA2_Stream7_IRQHandler
                0x08011b98                I2C3_EV_IRQHandler
                0x08011b98                EXTI9_5_IRQHandler
                0x08011b98                RTC_WKUP_IRQHandler
                0x08011b98                ETH_WKUP_IRQHandler
                0x08011b98                SPI2_IRQHandler
                0x08011b98                OTG_HS_EP1_IN_IRQHandler
                0x08011b98                DMA1_Stream0_IRQHandler
                0x08011b98                CAN1_TX_IRQHandler
                0x08011b98                EXTI4_IRQHandler
                0x08011b98                FSMC_IRQHandler
                0x08011b98                OTG_HS_EP1_OUT_IRQHandler
                0x08011b98                WWDG_IRQHandler
                0x08011b98                TIM2_IRQHandler
                0x08011b98                OTG_FS_WKUP_IRQHandler
                0x08011b98                TIM1_TRG_COM_TIM11_IRQHandler
                0x08011b98                OTG_HS_IRQHandler
                0x08011b98                EXTI1_IRQHandler
                0x08011b98                I2C2_ER_IRQHandler
                0x08011b98                DMA2_Stream1_IRQHandler
                0x08011b98                CAN1_SCE_IRQHandler
                0x08011b98                FLASH_IRQHandler
                0x08011b98                DMA2_Stream4_IRQHandler
                0x08011b98                USART1_IRQHandler
                0x08011b98                OTG_FS_IRQHandler
                0x08011b98                SPI3_IRQHandler
                0x08011b98                DMA1_Stream4_IRQHandler
                0x08011b98                I2C1_ER_IRQHandler
                0x08011b98                DMA2_Stream6_IRQHandler
                0x08011b98                DMA1_Stream3_IRQHandler
 *fill*         0x08011b9a        0x2 
 .text.__libc_init_array
                0x08011b9c       0x48 c:/vsarm/armcc/10 2021.10/bin/../lib/gcc/arm-none-eabi/10.3.1/../../../../arm-none-eabi/lib/thumb/v7-m/nofp\libc_nano.a(lib_a-init.o)
                0x08011b9c                __libc_init_array
 .text.memcmp   0x08011be4       0x20 c:/vsarm/armcc/10 2021.10/bin/../lib/gcc/arm-none-eabi/10.3.1/../../../../arm-none-eabi/lib/thumb/v7-m/nofp\libc_nano.a(lib_a-memcmp.o)
                0x08011be4                memcmp
 .text.memcpy   0x08011c04       0x1c c:/vsarm/armcc/10 2021.10/bin/../lib/gcc/arm-none-eabi/10.3.1/../../../../arm-none-eabi/lib/thumb/v7-m/nofp\libc_nano.a(lib_a-memcpy-stub.o)
                0x08011c04                memcpy
 .text.memset   0x08011c20       0x10 c:/vsarm/armcc/10 2021.10/bin/../lib/gcc/arm-none-eabi/10.3.1/../../../../arm-none-eabi/lib/thumb/v7-m/nofp\libc_nano.a(lib_a-memset.o)
                0x08011c20                memset
 .text.printf   0x08011c30       0x30 c:/vsarm/armcc/10 2021.10/bin/../lib/gcc/arm-none-eabi/10.3.1/../../../../arm-none-eabi/lib/thumb/v7-m/nofp\libc_nano.a(lib_a-printf.o)
                0x08011c30                iprintf
                0x08011c30                printf
 .text.sprintf  0x08011c60       0x40 c:/vsarm/armcc/10 2021.10/bin/../lib/gcc/arm-none-eabi/10.3.1/../../../../arm-none-eabi/lib/thumb/v7-m/nofp\libc_nano.a(lib_a-sprintf.o)
                0x08011c60                siprintf
                0x08011c60                sprintf
 .text.std      0x08011ca0       0x48 c:/vsarm/armcc/10 2021.10/bin/../lib/gcc/arm-none-eabi/10.3.1/../../../../arm-none-eabi/lib/thumb/v7-m/nofp\libc_nano.a(lib_a-findfp.o)
 .text._cleanup_r
                0x08011ce8        0xc c:/vsarm/armcc/10 2021.10/bin/../lib/gcc/arm-none-eabi/10.3.1/../../../../arm-none-eabi/lib/thumb/v7-m/nofp\libc_nano.a(lib_a-findfp.o)
                0x08011ce8                _cleanup_r
 .text.__sfmoreglue
                0x08011cf4       0x2c c:/vsarm/armcc/10 2021.10/bin/../lib/gcc/arm-none-eabi/10.3.1/../../../../arm-none-eabi/lib/thumb/v7-m/nofp\libc_nano.a(lib_a-findfp.o)
                0x08011cf4                __sfmoreglue
 .text.__sfp_lock_acquire
                0x08011d20        0xc c:/vsarm/armcc/10 2021.10/bin/../lib/gcc/arm-none-eabi/10.3.1/../../../../arm-none-eabi/lib/thumb/v7-m/nofp\libc_nano.a(lib_a-findfp.o)
                0x08011d20                __sfp_lock_acquire
 .text.__sfp_lock_release
                0x08011d2c        0xc c:/vsarm/armcc/10 2021.10/bin/../lib/gcc/arm-none-eabi/10.3.1/../../../../arm-none-eabi/lib/thumb/v7-m/nofp\libc_nano.a(lib_a-findfp.o)
                0x08011d2c                __sfp_lock_release
 .text.__sinit_lock_acquire
                0x08011d38        0xc c:/vsarm/armcc/10 2021.10/bin/../lib/gcc/arm-none-eabi/10.3.1/../../../../arm-none-eabi/lib/thumb/v7-m/nofp\libc_nano.a(lib_a-findfp.o)
                0x08011d38                __sinit_lock_acquire
 .text.__sinit_lock_release
                0x08011d44        0xc c:/vsarm/armcc/10 2021.10/bin/../lib/gcc/arm-none-eabi/10.3.1/../../../../arm-none-eabi/lib/thumb/v7-m/nofp\libc_nano.a(lib_a-findfp.o)
                0x08011d44                __sinit_lock_release
 .text.__sinit  0x08011d50       0x70 c:/vsarm/armcc/10 2021.10/bin/../lib/gcc/arm-none-eabi/10.3.1/../../../../arm-none-eabi/lib/thumb/v7-m/nofp\libc_nano.a(lib_a-findfp.o)
                0x08011d50                __sinit
 .text.__sfp    0x08011dc0       0x8c c:/vsarm/armcc/10 2021.10/bin/../lib/gcc/arm-none-eabi/10.3.1/../../../../arm-none-eabi/lib/thumb/v7-m/nofp\libc_nano.a(lib_a-findfp.o)
                0x08011dc0                __sfp
 .text._fwalk_reent
                0x08011e4c       0x3e c:/vsarm/armcc/10 2021.10/bin/../lib/gcc/arm-none-eabi/10.3.1/../../../../arm-none-eabi/lib/thumb/v7-m/nofp\libc_nano.a(lib_a-fwalk.o)
                0x08011e4c                _fwalk_reent
 .text.__retarget_lock_init_recursive
                0x08011e8a        0x2 c:/vsarm/armcc/10 2021.10/bin/../lib/gcc/arm-none-eabi/10.3.1/../../../../arm-none-eabi/lib/thumb/v7-m/nofp\libc_nano.a(lib_a-lock.o)
                0x08011e8a                __retarget_lock_init_recursive
 .text.__retarget_lock_acquire_recursive
                0x08011e8c        0x2 c:/vsarm/armcc/10 2021.10/bin/../lib/gcc/arm-none-eabi/10.3.1/../../../../arm-none-eabi/lib/thumb/v7-m/nofp\libc_nano.a(lib_a-lock.o)
                0x08011e8c                __retarget_lock_acquire_recursive
 .text.__retarget_lock_release_recursive
                0x08011e8e        0x2 c:/vsarm/armcc/10 2021.10/bin/../lib/gcc/arm-none-eabi/10.3.1/../../../../arm-none-eabi/lib/thumb/v7-m/nofp\libc_nano.a(lib_a-lock.o)
                0x08011e8e                __retarget_lock_release_recursive
 .text.sbrk_aligned
                0x08011e90       0x40 c:/vsarm/armcc/10 2021.10/bin/../lib/gcc/arm-none-eabi/10.3.1/../../../../arm-none-eabi/lib/thumb/v7-m/nofp\libc_nano.a(lib_a-nano-mallocr.o)
 .text._malloc_r
                0x08011ed0       0xe8 c:/vsarm/armcc/10 2021.10/bin/../lib/gcc/arm-none-eabi/10.3.1/../../../../arm-none-eabi/lib/thumb/v7-m/nofp\libc_nano.a(lib_a-nano-mallocr.o)
                0x08011ed0                _malloc_r
 .text.__ssputs_r
                0x08011fb8       0xb6 c:/vsarm/armcc/10 2021.10/bin/../lib/gcc/arm-none-eabi/10.3.1/../../../../arm-none-eabi/lib/thumb/v7-m/nofp\libc_nano.a(lib_a-nano-svfprintf.o)
                0x08011fb8                __ssputs_r
 *fill*         0x0801206e        0x2 
 .text._svfprintf_r
                0x08012070      0x200 c:/vsarm/armcc/10 2021.10/bin/../lib/gcc/arm-none-eabi/10.3.1/../../../../arm-none-eabi/lib/thumb/v7-m/nofp\libc_nano.a(lib_a-nano-svfprintf.o)
                0x08012070                _svfiprintf_r
                0x08012070                _svfprintf_r
 .text.__sfputc_r
                0x08012270       0x2a c:/vsarm/armcc/10 2021.10/bin/../lib/gcc/arm-none-eabi/10.3.1/../../../../arm-none-eabi/lib/thumb/v7-m/nofp\libc_nano.a(lib_a-nano-vfprintf.o)
 .text.__sfputs_r
                0x0801229a       0x24 c:/vsarm/armcc/10 2021.10/bin/../lib/gcc/arm-none-eabi/10.3.1/../../../../arm-none-eabi/lib/thumb/v7-m/nofp\libc_nano.a(lib_a-nano-vfprintf.o)
                0x0801229a                __sfputs_r
 *fill*         0x080122be        0x2 
 .text._vfprintf_r
                0x080122c0      0x260 c:/vsarm/armcc/10 2021.10/bin/../lib/gcc/arm-none-eabi/10.3.1/../../../../arm-none-eabi/lib/thumb/v7-m/nofp\libc_nano.a(lib_a-nano-vfprintf.o)
                0x080122c0                _vfprintf_r
                0x080122c0                _vfiprintf_r
 .text._printf_common
                0x08012520       0xde c:/vsarm/armcc/10 2021.10/bin/../lib/gcc/arm-none-eabi/10.3.1/../../../../arm-none-eabi/lib/thumb/v7-m/nofp\libc_nano.a(lib_a-nano-vfprintf_i.o)
                0x08012520                _printf_common
 *fill*         0x080125fe        0x2 
 .text._printf_i
                0x08012600      0x24c c:/vsarm/armcc/10 2021.10/bin/../lib/gcc/arm-none-eabi/10.3.1/../../../../arm-none-eabi/lib/thumb/v7-m/nofp\libc_nano.a(lib_a-nano-vfprintf_i.o)
                0x08012600                _printf_i
 .text._sbrk_r  0x0801284c       0x20 c:/vsarm/armcc/10 2021.10/bin/../lib/gcc/arm-none-eabi/10.3.1/../../../../arm-none-eabi/lib/thumb/v7-m/nofp\libc_nano.a(lib_a-sbrkr.o)
                0x0801284c                _sbrk_r
 .text.__sread  0x0801286c       0x22 c:/vsarm/armcc/10 2021.10/bin/../lib/gcc/arm-none-eabi/10.3.1/../../../../arm-none-eabi/lib/thumb/v7-m/nofp\libc_nano.a(lib_a-stdio.o)
                0x0801286c                __sread
 .text.__swrite
                0x0801288e       0x38 c:/vsarm/armcc/10 2021.10/bin/../lib/gcc/arm-none-eabi/10.3.1/../../../../arm-none-eabi/lib/thumb/v7-m/nofp\libc_nano.a(lib_a-stdio.o)
                0x0801288e                __swrite
 .text.__sseek  0x080128c6       0x24 c:/vsarm/armcc/10 2021.10/bin/../lib/gcc/arm-none-eabi/10.3.1/../../../../arm-none-eabi/lib/thumb/v7-m/nofp\libc_nano.a(lib_a-stdio.o)
                0x080128c6                __sseek
 .text.__sclose
                0x080128ea        0x8 c:/vsarm/armcc/10 2021.10/bin/../lib/gcc/arm-none-eabi/10.3.1/../../../../arm-none-eabi/lib/thumb/v7-m/nofp\libc_nano.a(lib_a-stdio.o)
                0x080128ea                __sclose
 *fill*         0x080128f2        0x2 
 .text.__swbuf_r
                0x080128f4       0xa4 c:/vsarm/armcc/10 2021.10/bin/../lib/gcc/arm-none-eabi/10.3.1/../../../../arm-none-eabi/lib/thumb/v7-m/nofp\libc_nano.a(lib_a-wbuf.o)
                0x080128f4                __swbuf_r
 .text._write_r
                0x08012998       0x24 c:/vsarm/armcc/10 2021.10/bin/../lib/gcc/arm-none-eabi/10.3.1/../../../../arm-none-eabi/lib/thumb/v7-m/nofp\libc_nano.a(lib_a-writer.o)
                0x08012998                _write_r
 .text.__swsetup_r
                0x080129bc       0xdc c:/vsarm/armcc/10 2021.10/bin/../lib/gcc/arm-none-eabi/10.3.1/../../../../arm-none-eabi/lib/thumb/v7-m/nofp\libc_nano.a(lib_a-wsetup.o)
                0x080129bc                __swsetup_r
 .text._close_r
                0x08012a98       0x20 c:/vsarm/armcc/10 2021.10/bin/../lib/gcc/arm-none-eabi/10.3.1/../../../../arm-none-eabi/lib/thumb/v7-m/nofp\libc_nano.a(lib_a-closer.o)
                0x08012a98                _close_r
 .text.__sflush_r
                0x08012ab8      0x104 c:/vsarm/armcc/10 2021.10/bin/../lib/gcc/arm-none-eabi/10.3.1/../../../../arm-none-eabi/lib/thumb/v7-m/nofp\libc_nano.a(lib_a-fflush.o)
                0x08012ab8                __sflush_r
 .text._fflush_r
                0x08012bbc       0x78 c:/vsarm/armcc/10 2021.10/bin/../lib/gcc/arm-none-eabi/10.3.1/../../../../arm-none-eabi/lib/thumb/v7-m/nofp\libc_nano.a(lib_a-fflush.o)
                0x08012bbc                _fflush_r
 .text._lseek_r
                0x08012c34       0x24 c:/vsarm/armcc/10 2021.10/bin/../lib/gcc/arm-none-eabi/10.3.1/../../../../arm-none-eabi/lib/thumb/v7-m/nofp\libc_nano.a(lib_a-lseekr.o)
                0x08012c34                _lseek_r
 .text.__swhatbuf_r
                0x08012c58       0x4a c:/vsarm/armcc/10 2021.10/bin/../lib/gcc/arm-none-eabi/10.3.1/../../../../arm-none-eabi/lib/thumb/v7-m/nofp\libc_nano.a(lib_a-makebuf.o)
                0x08012c58                __swhatbuf_r
 *fill*         0x08012ca2        0x2 
 .text.__smakebuf_r
                0x08012ca4       0x80 c:/vsarm/armcc/10 2021.10/bin/../lib/gcc/arm-none-eabi/10.3.1/../../../../arm-none-eabi/lib/thumb/v7-m/nofp\libc_nano.a(lib_a-makebuf.o)
                0x08012ca4                __smakebuf_r
 .text.memchr   0x08012d24       0x1c c:/vsarm/armcc/10 2021.10/bin/../lib/gcc/arm-none-eabi/10.3.1/../../../../arm-none-eabi/lib/thumb/v7-m/nofp\libc_nano.a(lib_a-memchr-stub.o)
                0x08012d24                memchr
 .text.memmove  0x08012d40       0x34 c:/vsarm/armcc/10 2021.10/bin/../lib/gcc/arm-none-eabi/10.3.1/../../../../arm-none-eabi/lib/thumb/v7-m/nofp\libc_nano.a(lib_a-memmove.o)
                0x08012d40                memmove
 .text.__malloc_lock
                0x08012d74        0xc c:/vsarm/armcc/10 2021.10/bin/../lib/gcc/arm-none-eabi/10.3.1/../../../../arm-none-eabi/lib/thumb/v7-m/nofp\libc_nano.a(lib_a-mlock.o)
                0x08012d74                __malloc_lock
 .text.__malloc_unlock
                0x08012d80        0xc c:/vsarm/armcc/10 2021.10/bin/../lib/gcc/arm-none-eabi/10.3.1/../../../../arm-none-eabi/lib/thumb/v7-m/nofp\libc_nano.a(lib_a-mlock.o)
                0x08012d80                __malloc_unlock
 .text._free_r  0x08012d8c       0x90 c:/vsarm/armcc/10 2021.10/bin/../lib/gcc/arm-none-eabi/10.3.1/../../../../arm-none-eabi/lib/thumb/v7-m/nofp\libc_nano.a(lib_a-nano-freer.o)
                0x08012d8c                _free_r
 .text._realloc_r
                0x08012e1c       0x5e c:/vsarm/armcc/10 2021.10/bin/../lib/gcc/arm-none-eabi/10.3.1/../../../../arm-none-eabi/lib/thumb/v7-m/nofp\libc_nano.a(lib_a-nano-reallocr.o)
                0x08012e1c                _realloc_r
 *fill*         0x08012e7a        0x2 
 .text._read_r  0x08012e7c       0x24 c:/vsarm/armcc/10 2021.10/bin/../lib/gcc/arm-none-eabi/10.3.1/../../../../arm-none-eabi/lib/thumb/v7-m/nofp\libc_nano.a(lib_a-readr.o)
                0x08012e7c                _read_r
 .text._fstat_r
                0x08012ea0       0x24 c:/vsarm/armcc/10 2021.10/bin/../lib/gcc/arm-none-eabi/10.3.1/../../../../arm-none-eabi/lib/thumb/v7-m/nofp\libc_nano.a(lib_a-fstatr.o)
                0x08012ea0                _fstat_r
 .text._isatty_r
                0x08012ec4       0x20 c:/vsarm/armcc/10 2021.10/bin/../lib/gcc/arm-none-eabi/10.3.1/../../../../arm-none-eabi/lib/thumb/v7-m/nofp\libc_nano.a(lib_a-isattyr.o)
                0x08012ec4                _isatty_r
 .text._malloc_usable_size_r
                0x08012ee4       0x10 c:/vsarm/armcc/10 2021.10/bin/../lib/gcc/arm-none-eabi/10.3.1/../../../../arm-none-eabi/lib/thumb/v7-m/nofp\libc_nano.a(lib_a-nano-msizer.o)
                0x08012ee4                _malloc_usable_size_r
 .text._close   0x08012ef4       0x10 c:/vsarm/armcc/10 2021.10/bin/../lib/gcc/arm-none-eabi/10.3.1/../../../../arm-none-eabi/lib/thumb/v7-m/nofp\libnosys.a(close.o)
                0x08012ef4                _close
 .text._fstat   0x08012f04       0x10 c:/vsarm/armcc/10 2021.10/bin/../lib/gcc/arm-none-eabi/10.3.1/../../../../arm-none-eabi/lib/thumb/v7-m/nofp\libnosys.a(fstat.o)
                0x08012f04                _fstat
 .text._isatty  0x08012f14       0x10 c:/vsarm/armcc/10 2021.10/bin/../lib/gcc/arm-none-eabi/10.3.1/../../../../arm-none-eabi/lib/thumb/v7-m/nofp\libnosys.a(isatty.o)
                0x08012f14                _isatty
 .text._lseek   0x08012f24       0x10 c:/vsarm/armcc/10 2021.10/bin/../lib/gcc/arm-none-eabi/10.3.1/../../../../arm-none-eabi/lib/thumb/v7-m/nofp\libnosys.a(lseek.o)
                0x08012f24                _lseek
 .text._read    0x08012f34       0x10 c:/vsarm/armcc/10 2021.10/bin/../lib/gcc/arm-none-eabi/10.3.1/../../../../arm-none-eabi/lib/thumb/v7-m/nofp\libnosys.a(read.o)
                0x08012f34                _read
 .text._sbrk    0x08012f44       0x1c c:/vsarm/armcc/10 2021.10/bin/../lib/gcc/arm-none-eabi/10.3.1/../../../../arm-none-eabi/lib/thumb/v7-m/nofp\libnosys.a(sbrk.o)
                0x08012f44                _sbrk
 .text._write   0x08012f60       0x10 c:/vsarm/armcc/10 2021.10/bin/../lib/gcc/arm-none-eabi/10.3.1/../../../../arm-none-eabi/lib/thumb/v7-m/nofp\libnosys.a(write.o)
                0x08012f60                _write
 *(.glue_7)
 .glue_7        0x08012f70        0x0 linker stubs
 *(.glue_7t)
 .glue_7t       0x08012f70        0x0 linker stubs
 *(.eh_frame)
 .eh_frame      0x08012f70        0x0 c:/vsarm/armcc/10 2021.10/bin/../lib/gcc/arm-none-eabi/10.3.1/thumb/v7-m/nofp/crtbegin.o
 *(.init)
 .init          0x08012f70        0x4 c:/vsarm/armcc/10 2021.10/bin/../lib/gcc/arm-none-eabi/10.3.1/thumb/v7-m/nofp/crti.o
                0x08012f70                _init
 .init          0x08012f74        0x8 c:/vsarm/armcc/10 2021.10/bin/../lib/gcc/arm-none-eabi/10.3.1/thumb/v7-m/nofp/crtn.o
 *(.fini)
 .fini          0x08012f7c        0x4 c:/vsarm/armcc/10 2021.10/bin/../lib/gcc/arm-none-eabi/10.3.1/thumb/v7-m/nofp/crti.o
                0x08012f7c                _fini
 .fini          0x08012f80        0x8 c:/vsarm/armcc/10 2021.10/bin/../lib/gcc/arm-none-eabi/10.3.1/thumb/v7-m/nofp/crtn.o
                0x08012f88                . = ALIGN (0x4)
                0x08012f88                _etext = .

.vfp11_veneer   0x08012f88        0x0
 .vfp11_veneer  0x08012f88        0x0 linker stubs

.v4_bx          0x08012f88        0x0
 .v4_bx         0x08012f88        0x0 linker stubs

.iplt           0x08012f88        0x0
 .iplt          0x08012f88        0x0 c:/vsarm/armcc/10 2021.10/bin/../lib/gcc/arm-none-eabi/10.3.1/thumb/v7-m/nofp/crtbegin.o

.rodata         0x08012f88     0x2494
                0x08012f88                . = ALIGN (0x4)
 *(.rodata)
 .rodata        0x08012f88      0x39c build/main.o
 .rodata        0x08013324       0xb1 build/sio.o
 *fill*         0x080133d5        0x3 
 .rodata        0x080133d8       0x5c build/ethernetif.o
 .rodata        0x08013434        0x8 build/lwip.o
 .rodata        0x0801343c        0x5 build/tasks.o
 *fill*         0x08013441        0x3 
 .rodata        0x08013444        0xd build/timers.o
 *fill*         0x08013451        0x3 
 .rodata        0x08013454       0x90 build/ethernet.o
 .rodata        0x080134e4       0x98 build/slipif.o
 .rodata        0x0801357c       0xdd build/tcpip.o
 *fill*         0x08013659        0x3 
 .rodata        0x0801365c      0x213 build/mem.o
 *fill*         0x0801386f        0x1 
 .rodata        0x08013870       0xeb build/memp.o
 *fill*         0x0801395b        0x1 
 .rodata        0x0801395c       0x70 build/netif.o
 .rodata        0x080139cc      0x509 build/pbuf.o
 *fill*         0x08013ed5        0x3 
 .rodata        0x08013ed8      0x477 build/tcp.o
 *fill*         0x0801434f        0x1 
 .rodata        0x08014350      0x381 build/tcp_in.o
 *fill*         0x080146d1        0x3 
 .rodata        0x080146d4      0x43f build/tcp_out.o
 *fill*         0x08014b13        0x1 
 .rodata        0x08014b14       0x9c build/timeouts.o
 .rodata        0x08014bb0       0x96 build/udp.o
 *fill*         0x08014c46        0x2 
 .rodata        0x08014c48      0x261 build/etharp.o
 *fill*         0x08014ea9        0x3 
 .rodata        0x08014eac       0xf4 build/icmp.o
 .rodata        0x08014fa0       0x95 build/ip4.o
 *fill*         0x08015035        0x3 
 .rodata        0x08015038      0x1ec build/ip4_frag.o
 *(.rodata*)
 .rodata.defaultTask_attributes
                0x08015224       0x24 build/main.o
                0x08015224                defaultTask_attributes
 .rodata.AHBPrescTable
                0x08015248       0x10 build/system_stm32f2xx.o
                0x08015248                AHBPrescTable
 .rodata.APBPrescTable
                0x08015258        0x8 build/system_stm32f2xx.o
                0x08015258                APBPrescTable
 .rodata.ethbroadcast
                0x08015260        0x6 build/ethernet.o
                0x08015260                ethbroadcast
 *fill*         0x08015266        0x2 
 .rodata.ethzero
                0x08015268        0x6 build/ethernet.o
                0x08015268                ethzero
 *fill*         0x0801526e        0x2 
 .rodata.memp_UDP_PCB
                0x08015270        0xc build/memp.o
                0x08015270                memp_UDP_PCB
 .rodata.memp_TCP_PCB
                0x0801527c        0xc build/memp.o
                0x0801527c                memp_TCP_PCB
 .rodata.memp_TCP_PCB_LISTEN
                0x08015288        0xc build/memp.o
                0x08015288                memp_TCP_PCB_LISTEN
 .rodata.memp_TCP_SEG
                0x08015294        0xc build/memp.o
                0x08015294                memp_TCP_SEG
 .rodata.memp_REASSDATA
                0x080152a0        0xc build/memp.o
                0x080152a0                memp_REASSDATA
 .rodata.memp_FRAG_PBUF
                0x080152ac        0xc build/memp.o
                0x080152ac                memp_FRAG_PBUF
 .rodata.memp_NETBUF
                0x080152b8        0xc build/memp.o
                0x080152b8                memp_NETBUF
 .rodata.memp_NETCONN
                0x080152c4        0xc build/memp.o
                0x080152c4                memp_NETCONN
 .rodata.memp_TCPIP_MSG_API
                0x080152d0        0xc build/memp.o
                0x080152d0                memp_TCPIP_MSG_API
 .rodata.memp_TCPIP_MSG_INPKT
                0x080152dc        0xc build/memp.o
                0x080152dc                memp_TCPIP_MSG_INPKT
 .rodata.memp_SYS_TIMEOUT
                0x080152e8        0xc build/memp.o
                0x080152e8                memp_SYS_TIMEOUT
 .rodata.memp_PBUF
                0x080152f4        0xc build/memp.o
                0x080152f4                memp_PBUF
 .rodata.memp_PBUF_POOL
                0x08015300        0xc build/memp.o
                0x08015300                memp_PBUF_POOL
 .rodata.memp_pools
                0x0801530c       0x34 build/memp.o
                0x0801530c                memp_pools
 .rodata.tcp_backoff
                0x08015340        0xd build/tcp.o
 *fill*         0x0801534d        0x3 
 .rodata.tcp_persist_backoff
                0x08015350        0x7 build/tcp.o
 *fill*         0x08015357        0x1 
 .rodata.tcp_pcb_lists
                0x08015358       0x10 build/tcp.o
                0x08015358                tcp_pcb_lists
 .rodata.lwip_cyclic_timers
                0x08015368       0x18 build/timeouts.o
                0x08015368                lwip_cyclic_timers
 .rodata.ip_addr_any
                0x08015380        0x4 build/ip4_addr.o
                0x08015380                ip_addr_any
 .rodata._global_impure_ptr
                0x08015384        0x4 c:/vsarm/armcc/10 2021.10/bin/../lib/gcc/arm-none-eabi/10.3.1/../../../../arm-none-eabi/lib/thumb/v7-m/nofp\libc_nano.a(lib_a-impure.o)
                0x08015384                _global_impure_ptr
 .rodata.__sf_fake_stderr
                0x08015388       0x20 c:/vsarm/armcc/10 2021.10/bin/../lib/gcc/arm-none-eabi/10.3.1/../../../../arm-none-eabi/lib/thumb/v7-m/nofp\libc_nano.a(lib_a-findfp.o)
                0x08015388                __sf_fake_stderr
 .rodata.__sf_fake_stdin
                0x080153a8       0x20 c:/vsarm/armcc/10 2021.10/bin/../lib/gcc/arm-none-eabi/10.3.1/../../../../arm-none-eabi/lib/thumb/v7-m/nofp\libc_nano.a(lib_a-findfp.o)
                0x080153a8                __sf_fake_stdin
 .rodata.__sf_fake_stdout
                0x080153c8       0x20 c:/vsarm/armcc/10 2021.10/bin/../lib/gcc/arm-none-eabi/10.3.1/../../../../arm-none-eabi/lib/thumb/v7-m/nofp\libc_nano.a(lib_a-findfp.o)
                0x080153c8                __sf_fake_stdout
 .rodata._svfprintf_r.str1.1
                0x080153e8       0x11 c:/vsarm/armcc/10 2021.10/bin/../lib/gcc/arm-none-eabi/10.3.1/../../../../arm-none-eabi/lib/thumb/v7-m/nofp\libc_nano.a(lib_a-nano-svfprintf.o)
 .rodata._vfprintf_r.str1.1
                0x080153f9       0x11 c:/vsarm/armcc/10 2021.10/bin/../lib/gcc/arm-none-eabi/10.3.1/../../../../arm-none-eabi/lib/thumb/v7-m/nofp\libc_nano.a(lib_a-nano-vfprintf.o)
 .rodata._printf_i.str1.1
                0x080153f9       0x22 c:/vsarm/armcc/10 2021.10/bin/../lib/gcc/arm-none-eabi/10.3.1/../../../../arm-none-eabi/lib/thumb/v7-m/nofp\libc_nano.a(lib_a-nano-vfprintf_i.o)
                0x0801541c                . = ALIGN (0x4)
 *fill*         0x0801541b        0x1 

.ARM.extab
 *(.ARM.extab* .gnu.linkonce.armextab.*)

.ARM            0x0801541c        0x8
                0x0801541c                __exidx_start = .
 *(.ARM.exidx*)
 .ARM.exidx     0x0801541c        0x8 c:/vsarm/armcc/10 2021.10/bin/../lib/gcc/arm-none-eabi/10.3.1/thumb/v7-m/nofp\libgcc.a(_udivmoddi4.o)
                0x08015424                __exidx_end = .

.rel.dyn        0x08015424        0x0
 .rel.iplt      0x08015424        0x0 c:/vsarm/armcc/10 2021.10/bin/../lib/gcc/arm-none-eabi/10.3.1/thumb/v7-m/nofp/crtbegin.o

.preinit_array  0x08015424        0x0
                0x08015424                PROVIDE (__preinit_array_start = .)
 *(.preinit_array*)
                0x08015424                PROVIDE (__preinit_array_end = .)

.init_array     0x08015424        0x4
                0x08015424                PROVIDE (__init_array_start = .)
 *(SORT_BY_NAME(.init_array.*))
 *(.init_array*)
 .init_array    0x08015424        0x4 c:/vsarm/armcc/10 2021.10/bin/../lib/gcc/arm-none-eabi/10.3.1/thumb/v7-m/nofp/crtbegin.o
                0x08015428                PROVIDE (__init_array_end = .)

.fini_array     0x08015428        0x4
                [!provide]                PROVIDE (__fini_array_start = .)
 *(SORT_BY_NAME(.fini_array.*))
 *(.fini_array*)
 .fini_array    0x08015428        0x4 c:/vsarm/armcc/10 2021.10/bin/../lib/gcc/arm-none-eabi/10.3.1/thumb/v7-m/nofp/crtbegin.o
                [!provide]                PROVIDE (__fini_array_end = .)
                0x0801542c                _sidata = LOADADDR (.data)

.data           0x20000000       0x78 load address 0x0801542c
                0x20000000                . = ALIGN (0x4)
                0x20000000                _sdata = .
 *(.data)
 *(.data*)
 .data.uwTickPrio
                0x20000000        0x4 build/stm32f2xx_hal.o
                0x20000000                uwTickPrio
 .data.uwTickFreq
                0x20000004        0x1 build/stm32f2xx_hal.o
                0x20000004                uwTickFreq
 *fill*         0x20000005        0x3 
 .data.SystemCoreClock
                0x20000008        0x4 build/system_stm32f2xx.o
                0x20000008                SystemCoreClock
 .data.uxCriticalNesting
                0x2000000c        0x4 build/port.o
 .data.iss.0    0x20000010        0x4 build/tcp.o
 .data._impure_ptr
                0x20000014        0x4 c:/vsarm/armcc/10 2021.10/bin/../lib/gcc/arm-none-eabi/10.3.1/../../../../arm-none-eabi/lib/thumb/v7-m/nofp\libc_nano.a(lib_a-impure.o)
                0x20000014                _impure_ptr
 .data.impure_data
                0x20000018       0x60 c:/vsarm/armcc/10 2021.10/bin/../lib/gcc/arm-none-eabi/10.3.1/../../../../arm-none-eabi/lib/thumb/v7-m/nofp\libc_nano.a(lib_a-impure.o)
                0x20000078                . = ALIGN (0x4)
                0x20000078                _edata = .

.igot.plt       0x20000078        0x0 load address 0x080154a4
 .igot.plt      0x20000078        0x0 c:/vsarm/armcc/10 2021.10/bin/../lib/gcc/arm-none-eabi/10.3.1/thumb/v7-m/nofp/crtbegin.o
                0x20000078                . = ALIGN (0x4)

.bss            0x20000078     0xf594 load address 0x080154a4
                0x20000078                _sbss = .
                0x20000078                __bss_start__ = _sbss
 *(.bss)
 .bss           0x20000078       0x1c c:/vsarm/armcc/10 2021.10/bin/../lib/gcc/arm-none-eabi/10.3.1/thumb/v7-m/nofp/crtbegin.o
 *(.bss*)
 .bss.huart2    0x20000094       0x44 build/main.o
                0x20000094                huart2
 .bss.huart3    0x200000d8       0x44 build/main.o
                0x200000d8                huart3
 .bss.defaultTaskHandle
                0x2000011c        0x4 build/main.o
                0x2000011c                defaultTaskHandle
 .bss.preBUFF   0x20000120        0x1 build/main.o
                0x20000120                preBUFF
 *fill*         0x20000121        0x3 
 .bss.queueUART
                0x20000124        0x4 build/sio.o
                0x20000124                queueUART
 .bss.errorUartSR
                0x20000128        0x4 build/sio.o
                0x20000128                errorUartSR
 .bss.htim4     0x2000012c       0x48 build/stm32f2xx_hal_timebase_tim.o
                0x2000012c                htim4
 .bss.DMARxDscrTab
                0x20000174       0x80 build/ethernetif.o
                0x20000174                DMARxDscrTab
 .bss.DMATxDscrTab
                0x200001f4       0x80 build/ethernetif.o
                0x200001f4                DMATxDscrTab
 .bss.Rx_Buff   0x20000274     0x17d0 build/ethernetif.o
                0x20000274                Rx_Buff
 .bss.Tx_Buff   0x20001a44     0x17d0 build/ethernetif.o
                0x20001a44                Tx_Buff
 .bss.s_xSemaphore
                0x20003214        0x4 build/ethernetif.o
                0x20003214                s_xSemaphore
 .bss.heth      0x20003218       0x48 build/ethernetif.o
                0x20003218                heth
 .bss.Netif_LinkSemaphore
                0x20003260        0x4 build/lwip.o
                0x20003260                Netif_LinkSemaphore
 .bss.link_arg  0x20003264        0x8 build/lwip.o
                0x20003264                link_arg
 .bss.gnetif    0x2000326c       0x34 build/lwip.o
                0x2000326c                gnetif
 .bss.ipaddr    0x200032a0        0x4 build/lwip.o
                0x200032a0                ipaddr
 .bss.netmask   0x200032a4        0x4 build/lwip.o
                0x200032a4                netmask
 .bss.gw        0x200032a8        0x4 build/lwip.o
                0x200032a8                gw
 .bss.IP_ADDRESS
                0x200032ac        0x4 build/lwip.o
                0x200032ac                IP_ADDRESS
 .bss.NETMASK_ADDRESS
                0x200032b0        0x4 build/lwip.o
                0x200032b0                NETMASK_ADDRESS
 .bss.GATEWAY_ADDRESS
                0x200032b4        0x4 build/lwip.o
                0x200032b4                GATEWAY_ADDRESS
 .bss.attributes
                0x200032b8       0x24 build/lwip.o
                0x200032b8                attributes
 .bss.uwTick    0x200032dc        0x4 build/stm32f2xx_hal.o
                0x200032dc                uwTick
 .bss.xQueueRegistry
                0x200032e0       0x40 build/queue.o
                0x200032e0                xQueueRegistry
 .bss.pxCurrentTCB
                0x20003320        0x4 build/tasks.o
                0x20003320                pxCurrentTCB
 .bss.pxReadyTasksLists
                0x20003324      0x460 build/tasks.o
 .bss.xDelayedTaskList1
                0x20003784       0x14 build/tasks.o
 .bss.xDelayedTaskList2
                0x20003798       0x14 build/tasks.o
 .bss.pxDelayedTaskList
                0x200037ac        0x4 build/tasks.o
 .bss.pxOverflowDelayedTaskList
                0x200037b0        0x4 build/tasks.o
 .bss.xPendingReadyList
                0x200037b4       0x14 build/tasks.o
 .bss.xTasksWaitingTermination
                0x200037c8       0x14 build/tasks.o
 .bss.uxDeletedTasksWaitingCleanUp
                0x200037dc        0x4 build/tasks.o
 .bss.xSuspendedTaskList
                0x200037e0       0x14 build/tasks.o
 .bss.uxCurrentNumberOfTasks
                0x200037f4        0x4 build/tasks.o
 .bss.xTickCount
                0x200037f8        0x4 build/tasks.o
 .bss.uxTopReadyPriority
                0x200037fc        0x4 build/tasks.o
 .bss.xSchedulerRunning
                0x20003800        0x4 build/tasks.o
 .bss.uxPendedTicks
                0x20003804        0x4 build/tasks.o
 .bss.xYieldPending
                0x20003808        0x4 build/tasks.o
 .bss.xNumOfOverflows
                0x2000380c        0x4 build/tasks.o
 .bss.uxTaskNumber
                0x20003810        0x4 build/tasks.o
 .bss.xNextTaskUnblockTime
                0x20003814        0x4 build/tasks.o
 .bss.xIdleTaskHandle
                0x20003818        0x4 build/tasks.o
 .bss.uxSchedulerSuspended
                0x2000381c        0x4 build/tasks.o
 .bss.xActiveTimerList1
                0x20003820       0x14 build/timers.o
 .bss.xActiveTimerList2
                0x20003834       0x14 build/timers.o
 .bss.pxCurrentTimerList
                0x20003848        0x4 build/timers.o
 .bss.pxOverflowTimerList
                0x2000384c        0x4 build/timers.o
 .bss.xTimerQueue
                0x20003850        0x4 build/timers.o
 .bss.xTimerTaskHandle
                0x20003854        0x4 build/timers.o
 .bss.xLastTime.2
                0x20003858        0x4 build/timers.o
 .bss.ucStaticTimerQueueStorage.1
                0x2000385c       0xa0 build/timers.o
 .bss.xStaticTimerQueue.0
                0x200038fc       0x50 build/timers.o
 .bss.KernelState
                0x2000394c        0x4 build/cmsis_os2.o
 .bss.Idle_TCB  0x20003950       0x5c build/cmsis_os2.o
 .bss.Idle_Stack
                0x200039ac      0x200 build/cmsis_os2.o
 .bss.Timer_TCB
                0x20003bac       0x5c build/cmsis_os2.o
 .bss.Timer_Stack
                0x20003c08      0x400 build/cmsis_os2.o
 .bss.ucHeap    0x20004008     0x7d00 build/heap_4.o
 .bss.xStart    0x2000bd08        0x8 build/heap_4.o
 .bss.pxEnd     0x2000bd10        0x4 build/heap_4.o
 .bss.xFreeBytesRemaining
                0x2000bd14        0x4 build/heap_4.o
 .bss.xMinimumEverFreeBytesRemaining
                0x2000bd18        0x4 build/heap_4.o
 .bss.xBlockAllocatedBit
                0x2000bd1c        0x4 build/heap_4.o
 .bss.ucMaxSysCallPriority
                0x2000bd20        0x1 build/port.o
 *fill*         0x2000bd21        0x3 
 .bss.ulMaxPRIGROUPValue
                0x2000bd24        0x4 build/port.o
 .bss.tcpip_init_done
                0x2000bd28        0x4 build/tcpip.o
 .bss.tcpip_init_done_arg
                0x2000bd2c        0x4 build/tcpip.o
 .bss.mbox      0x2000bd30        0x4 build/tcpip.o
 .bss.lock_tcpip_core
                0x2000bd34        0x4 build/tcpip.o
                0x2000bd34                lock_tcpip_core
 .bss.ip_data   0x2000bd38       0x18 build/ip.o
                0x2000bd38                ip_data
 .bss.ram_heap  0x2000bd50      0x653 build/mem.o
                0x2000bd50                ram_heap
 *fill*         0x2000c3a3        0x1 
 .bss.ram       0x2000c3a4        0x4 build/mem.o
 .bss.ram_end   0x2000c3a8        0x4 build/mem.o
 .bss.lfree     0x2000c3ac        0x4 build/mem.o
 .bss.mem_mutex
                0x2000c3b0        0x4 build/mem.o
 .bss.memp_memory_UDP_PCB_base
                0x2000c3b4       0x83 build/memp.o
                0x2000c3b4                memp_memory_UDP_PCB_base
 *fill*         0x2000c437        0x1 
 .bss.memp_tab_UDP_PCB
                0x2000c438        0x4 build/memp.o
 .bss.memp_memory_TCP_PCB_base
                0x2000c43c      0x2fb build/memp.o
                0x2000c43c                memp_memory_TCP_PCB_base
 *fill*         0x2000c737        0x1 
 .bss.memp_tab_TCP_PCB
                0x2000c738        0x4 build/memp.o
 .bss.memp_memory_TCP_PCB_LISTEN_base
                0x2000c73c       0xe3 build/memp.o
                0x2000c73c                memp_memory_TCP_PCB_LISTEN_base
 *fill*         0x2000c81f        0x1 
 .bss.memp_tab_TCP_PCB_LISTEN
                0x2000c820        0x4 build/memp.o
 .bss.memp_memory_TCP_SEG_base
                0x2000c824      0x103 build/memp.o
                0x2000c824                memp_memory_TCP_SEG_base
 *fill*         0x2000c927        0x1 
 .bss.memp_tab_TCP_SEG
                0x2000c928        0x4 build/memp.o
 .bss.memp_memory_REASSDATA_base
                0x2000c92c       0xa3 build/memp.o
                0x2000c92c                memp_memory_REASSDATA_base
 *fill*         0x2000c9cf        0x1 
 .bss.memp_tab_REASSDATA
                0x2000c9d0        0x4 build/memp.o
 .bss.memp_memory_FRAG_PBUF_base
                0x2000c9d4      0x16b build/memp.o
                0x2000c9d4                memp_memory_FRAG_PBUF_base
 *fill*         0x2000cb3f        0x1 
 .bss.memp_tab_FRAG_PBUF
                0x2000cb40        0x4 build/memp.o
 .bss.memp_memory_NETBUF_base
                0x2000cb44       0x23 build/memp.o
                0x2000cb44                memp_memory_NETBUF_base
 *fill*         0x2000cb67        0x1 
 .bss.memp_tab_NETBUF
                0x2000cb68        0x4 build/memp.o
 .bss.memp_memory_NETCONN_base
                0x2000cb6c       0xb3 build/memp.o
                0x2000cb6c                memp_memory_NETCONN_base
 *fill*         0x2000cc1f        0x1 
 .bss.memp_tab_NETCONN
                0x2000cc20        0x4 build/memp.o
 .bss.memp_memory_TCPIP_MSG_API_base
                0x2000cc24       0x83 build/memp.o
                0x2000cc24                memp_memory_TCPIP_MSG_API_base
 *fill*         0x2000cca7        0x1 
 .bss.memp_tab_TCPIP_MSG_API
                0x2000cca8        0x4 build/memp.o
 .bss.memp_memory_TCPIP_MSG_INPKT_base
                0x2000ccac       0x83 build/memp.o
                0x2000ccac                memp_memory_TCPIP_MSG_INPKT_base
 *fill*         0x2000cd2f        0x1 
 .bss.memp_tab_TCPIP_MSG_INPKT
                0x2000cd30        0x4 build/memp.o
 .bss.memp_memory_SYS_TIMEOUT_base
                0x2000cd34       0x33 build/memp.o
                0x2000cd34                memp_memory_SYS_TIMEOUT_base
 *fill*         0x2000cd67        0x1 
 .bss.memp_tab_SYS_TIMEOUT
                0x2000cd68        0x4 build/memp.o
 .bss.memp_memory_PBUF_base
                0x2000cd6c      0x103 build/memp.o
                0x2000cd6c                memp_memory_PBUF_base
 *fill*         0x2000ce6f        0x1 
 .bss.memp_tab_PBUF
                0x2000ce70        0x4 build/memp.o
 .bss.memp_memory_PBUF_POOL_base
                0x2000ce74     0x2603 build/memp.o
                0x2000ce74                memp_memory_PBUF_POOL_base
 *fill*         0x2000f477        0x1 
 .bss.memp_tab_PBUF_POOL
                0x2000f478        0x4 build/memp.o
 .bss.netif_list
                0x2000f47c        0x4 build/netif.o
                0x2000f47c                netif_list
 .bss.netif_default
                0x2000f480        0x4 build/netif.o
                0x2000f480                netif_default
 .bss.netif_num
                0x2000f484        0x1 build/netif.o
 .bss.pbuf_free_ooseq_pending
                0x2000f485        0x1 build/pbuf.o
                0x2000f485                pbuf_free_ooseq_pending
 *fill*         0x2000f486        0x2 
 .bss.tcp_ticks
                0x2000f488        0x4 build/tcp.o
                0x2000f488                tcp_ticks
 .bss.tcp_bound_pcbs
                0x2000f48c        0x4 build/tcp.o
                0x2000f48c                tcp_bound_pcbs
 .bss.tcp_listen_pcbs
                0x2000f490        0x4 build/tcp.o
                0x2000f490                tcp_listen_pcbs
 .bss.tcp_active_pcbs
                0x2000f494        0x4 build/tcp.o
                0x2000f494                tcp_active_pcbs
 .bss.tcp_tw_pcbs
                0x2000f498        0x4 build/tcp.o
                0x2000f498                tcp_tw_pcbs
 .bss.tcp_active_pcbs_changed
                0x2000f49c        0x1 build/tcp.o
                0x2000f49c                tcp_active_pcbs_changed
 .bss.tcp_timer
                0x2000f49d        0x1 build/tcp.o
 .bss.tcp_timer_ctr
                0x2000f49e        0x1 build/tcp.o
 *fill*         0x2000f49f        0x1 
 .bss.inseg     0x2000f4a0       0x10 build/tcp_in.o
 .bss.tcphdr    0x2000f4b0        0x4 build/tcp_in.o
 .bss.tcphdr_optlen
                0x2000f4b4        0x2 build/tcp_in.o
 .bss.tcphdr_opt1len
                0x2000f4b6        0x2 build/tcp_in.o
 .bss.tcphdr_opt2
                0x2000f4b8        0x4 build/tcp_in.o
 .bss.tcp_optidx
                0x2000f4bc        0x2 build/tcp_in.o
 *fill*         0x2000f4be        0x2 
 .bss.seqno     0x2000f4c0        0x4 build/tcp_in.o
 .bss.ackno     0x2000f4c4        0x4 build/tcp_in.o
 .bss.recv_acked
                0x2000f4c8        0x2 build/tcp_in.o
 .bss.tcplen    0x2000f4ca        0x2 build/tcp_in.o
 .bss.flags     0x2000f4cc        0x1 build/tcp_in.o
 .bss.recv_flags
                0x2000f4cd        0x1 build/tcp_in.o
 *fill*         0x2000f4ce        0x2 
 .bss.recv_data
                0x2000f4d0        0x4 build/tcp_in.o
 .bss.tcp_input_pcb
                0x2000f4d4        0x4 build/tcp_in.o
                0x2000f4d4                tcp_input_pcb
 .bss.next_timeout
                0x2000f4d8        0x4 build/timeouts.o
 .bss.timeouts_last_time
                0x2000f4dc        0x4 build/timeouts.o
 .bss.tcpip_tcp_timer_active
                0x2000f4e0        0x4 build/timeouts.o
 .bss.udp_pcbs  0x2000f4e4        0x4 build/udp.o
                0x2000f4e4                udp_pcbs
 .bss.arp_table
                0x2000f4e8       0xf0 build/etharp.o
 .bss.etharp_cached_entry
                0x2000f5d8        0x1 build/etharp.o
 *fill*         0x2000f5d9        0x1 
 .bss.ip_id     0x2000f5da        0x2 build/ip4.o
 .bss.str.0     0x2000f5dc       0x10 build/ip4_addr.o
 .bss.reassdatagrams
                0x2000f5ec        0x4 build/ip4_frag.o
 .bss.ip_reass_pbufcount
                0x2000f5f0        0x2 build/ip4_frag.o
 *fill*         0x2000f5f2        0x2 
 .bss.errno     0x2000f5f4        0x4 build/sys_arch.o
                0x2000f5f4                errno
 .bss.lwip_sys_mutex
                0x2000f5f8        0x4 build/sys_arch.o
                0x2000f5f8                lwip_sys_mutex
 .bss.__lock___malloc_recursive_mutex
                0x2000f5fc        0x1 c:/vsarm/armcc/10 2021.10/bin/../lib/gcc/arm-none-eabi/10.3.1/../../../../arm-none-eabi/lib/thumb/v7-m/nofp\libc_nano.a(lib_a-lock.o)
                0x2000f5fc                __lock___malloc_recursive_mutex
 .bss.__lock___sfp_recursive_mutex
                0x2000f5fd        0x1 c:/vsarm/armcc/10 2021.10/bin/../lib/gcc/arm-none-eabi/10.3.1/../../../../arm-none-eabi/lib/thumb/v7-m/nofp\libc_nano.a(lib_a-lock.o)
                0x2000f5fd                __lock___sfp_recursive_mutex
 .bss.__lock___sinit_recursive_mutex
                0x2000f5fe        0x1 c:/vsarm/armcc/10 2021.10/bin/../lib/gcc/arm-none-eabi/10.3.1/../../../../arm-none-eabi/lib/thumb/v7-m/nofp\libc_nano.a(lib_a-lock.o)
                0x2000f5fe                __lock___sinit_recursive_mutex
 *fill*         0x2000f5ff        0x1 
 .bss.__malloc_free_list
                0x2000f600        0x4 c:/vsarm/armcc/10 2021.10/bin/../lib/gcc/arm-none-eabi/10.3.1/../../../../arm-none-eabi/lib/thumb/v7-m/nofp\libc_nano.a(lib_a-nano-mallocr.o)
                0x2000f600                __malloc_free_list
 .bss.__malloc_sbrk_start
                0x2000f604        0x4 c:/vsarm/armcc/10 2021.10/bin/../lib/gcc/arm-none-eabi/10.3.1/../../../../arm-none-eabi/lib/thumb/v7-m/nofp\libc_nano.a(lib_a-nano-mallocr.o)
                0x2000f604                __malloc_sbrk_start
 .bss.heap_end.0
                0x2000f608        0x4 c:/vsarm/armcc/10 2021.10/bin/../lib/gcc/arm-none-eabi/10.3.1/../../../../arm-none-eabi/lib/thumb/v7-m/nofp\libnosys.a(sbrk.o)
 *(COMMON)
                0x2000f60c                . = ALIGN (0x4)
                0x2000f60c                _ebss = .
                0x2000f60c                __bss_end__ = _ebss

._user_heap_stack
                0x2000f60c     0x6004 load address 0x080154a4
                0x2000f610                . = ALIGN (0x8)
 *fill*         0x2000f60c        0x4 
                0x2000f610                PROVIDE (end = .)
                [!provide]                PROVIDE (_end = .)
                0x20011610                . = (. + _Min_Heap_Size)
 *fill*         0x2000f610     0x2000 
                0x20015610                . = (. + _Min_Stack_Size)
 *fill*         0x20011610     0x4000 
                0x20015610                . = ALIGN (0x8)

/DISCARD/
 libc.a(*)
 libm.a(*)
 libgcc.a(*)

.ARM.attributes
                0x00000000       0x29
 *(.ARM.attributes)
 .ARM.attributes
                0x00000000       0x1d c:/vsarm/armcc/10 2021.10/bin/../lib/gcc/arm-none-eabi/10.3.1/thumb/v7-m/nofp/crti.o
 .ARM.attributes
                0x0000001d       0x2d c:/vsarm/armcc/10 2021.10/bin/../lib/gcc/arm-none-eabi/10.3.1/thumb/v7-m/nofp/crtbegin.o
 .ARM.attributes
                0x0000004a       0x2d build/main.o
 .ARM.attributes
                0x00000077       0x2d build/sio.o
 .ARM.attributes
                0x000000a4       0x2d build/stm32f2xx_it.o
 .ARM.attributes
                0x000000d1       0x2d build/stm32f2xx_hal_msp.o
 .ARM.attributes
                0x000000fe       0x2d build/stm32f2xx_hal_timebase_tim.o
 .ARM.attributes
                0x0000012b       0x2d build/ethernetif.o
 .ARM.attributes
                0x00000158       0x2d build/lwip.o
 .ARM.attributes
                0x00000185       0x2d build/stm32f2xx_hal_eth.o
 .ARM.attributes
                0x000001b2       0x2d build/stm32f2xx_hal.o
 .ARM.attributes
                0x000001df       0x2d build/stm32f2xx_hal_rcc.o
 .ARM.attributes
                0x0000020c       0x2d build/stm32f2xx_hal_cortex.o
 .ARM.attributes
                0x00000239       0x2d build/stm32f2xx_hal_gpio.o
 .ARM.attributes
                0x00000266       0x2d build/stm32f2xx_hal_dma.o
 .ARM.attributes
                0x00000293       0x2d build/stm32f2xx_hal_tim.o
 .ARM.attributes
                0x000002c0       0x2d build/stm32f2xx_hal_tim_ex.o
 .ARM.attributes
                0x000002ed       0x2d build/stm32f2xx_hal_uart.o
 .ARM.attributes
                0x0000031a       0x2d build/system_stm32f2xx.o
 .ARM.attributes
                0x00000347       0x2d build/list.o
 .ARM.attributes
                0x00000374       0x2d build/queue.o
 .ARM.attributes
                0x000003a1       0x2d build/tasks.o
 .ARM.attributes
                0x000003ce       0x2d build/timers.o
 .ARM.attributes
                0x000003fb       0x2d build/cmsis_os2.o
 .ARM.attributes
                0x00000428       0x2d build/heap_4.o
 .ARM.attributes
                0x00000455       0x2d build/port.o
 .ARM.attributes
                0x00000482       0x2d build/ethernet.o
 .ARM.attributes
                0x000004af       0x2d build/slipif.o
 .ARM.attributes
                0x000004dc       0x2d build/tcpip.o
 .ARM.attributes
                0x00000509       0x2d build/def.o
 .ARM.attributes
                0x00000536       0x2d build/init.o
 .ARM.attributes
                0x00000563       0x2d build/ip.o
 .ARM.attributes
                0x00000590       0x2d build/mem.o
 .ARM.attributes
                0x000005bd       0x2d build/memp.o
 .ARM.attributes
                0x000005ea       0x2d build/netif.o
 .ARM.attributes
                0x00000617       0x2d build/pbuf.o
 .ARM.attributes
                0x00000644       0x2d build/tcp.o
 .ARM.attributes
                0x00000671       0x2d build/tcp_in.o
 .ARM.attributes
                0x0000069e       0x2d build/tcp_out.o
 .ARM.attributes
                0x000006cb       0x2d build/timeouts.o
 .ARM.attributes
                0x000006f8       0x2d build/udp.o
 .ARM.attributes
                0x00000725       0x2d build/etharp.o
 .ARM.attributes
                0x00000752       0x2d build/icmp.o
 .ARM.attributes
                0x0000077f       0x2d build/ip4.o
 .ARM.attributes
                0x000007ac       0x2d build/ip4_addr.o
 .ARM.attributes
                0x000007d9       0x2d build/ip4_frag.o
 .ARM.attributes
                0x00000806       0x2d build/sys_arch.o
 .ARM.attributes
                0x00000833       0x21 build/startup_stm32f207xx.o
 .ARM.attributes
                0x00000854       0x2d c:/vsarm/armcc/10 2021.10/bin/../lib/gcc/arm-none-eabi/10.3.1/../../../../arm-none-eabi/lib/thumb/v7-m/nofp\libc_nano.a(lib_a-impure.o)
 .ARM.attributes
                0x00000881       0x2d c:/vsarm/armcc/10 2021.10/bin/../lib/gcc/arm-none-eabi/10.3.1/../../../../arm-none-eabi/lib/thumb/v7-m/nofp\libc_nano.a(lib_a-init.o)
 .ARM.attributes
                0x000008ae       0x2d c:/vsarm/armcc/10 2021.10/bin/../lib/gcc/arm-none-eabi/10.3.1/../../../../arm-none-eabi/lib/thumb/v7-m/nofp\libc_nano.a(lib_a-memcmp.o)
 .ARM.attributes
                0x000008db       0x2d c:/vsarm/armcc/10 2021.10/bin/../lib/gcc/arm-none-eabi/10.3.1/../../../../arm-none-eabi/lib/thumb/v7-m/nofp\libc_nano.a(lib_a-memcpy-stub.o)
 .ARM.attributes
                0x00000908       0x2d c:/vsarm/armcc/10 2021.10/bin/../lib/gcc/arm-none-eabi/10.3.1/../../../../arm-none-eabi/lib/thumb/v7-m/nofp\libc_nano.a(lib_a-memset.o)
 .ARM.attributes
                0x00000935       0x2d c:/vsarm/armcc/10 2021.10/bin/../lib/gcc/arm-none-eabi/10.3.1/../../../../arm-none-eabi/lib/thumb/v7-m/nofp\libc_nano.a(lib_a-printf.o)
 .ARM.attributes
                0x00000962       0x2d c:/vsarm/armcc/10 2021.10/bin/../lib/gcc/arm-none-eabi/10.3.1/../../../../arm-none-eabi/lib/thumb/v7-m/nofp\libc_nano.a(lib_a-sprintf.o)
 .ARM.attributes
                0x0000098f       0x2d c:/vsarm/armcc/10 2021.10/bin/../lib/gcc/arm-none-eabi/10.3.1/../../../../arm-none-eabi/lib/thumb/v7-m/nofp\libc_nano.a(lib_a-findfp.o)
 .ARM.attributes
                0x000009bc       0x2d c:/vsarm/armcc/10 2021.10/bin/../lib/gcc/arm-none-eabi/10.3.1/../../../../arm-none-eabi/lib/thumb/v7-m/nofp\libc_nano.a(lib_a-fwalk.o)
 .ARM.attributes
                0x000009e9       0x2d c:/vsarm/armcc/10 2021.10/bin/../lib/gcc/arm-none-eabi/10.3.1/../../../../arm-none-eabi/lib/thumb/v7-m/nofp\libc_nano.a(lib_a-lock.o)
 .ARM.attributes
                0x00000a16       0x2d c:/vsarm/armcc/10 2021.10/bin/../lib/gcc/arm-none-eabi/10.3.1/../../../../arm-none-eabi/lib/thumb/v7-m/nofp\libc_nano.a(lib_a-nano-mallocr.o)
 .ARM.attributes
                0x00000a43       0x2d c:/vsarm/armcc/10 2021.10/bin/../lib/gcc/arm-none-eabi/10.3.1/../../../../arm-none-eabi/lib/thumb/v7-m/nofp\libc_nano.a(lib_a-nano-svfprintf.o)
 .ARM.attributes
                0x00000a70       0x2d c:/vsarm/armcc/10 2021.10/bin/../lib/gcc/arm-none-eabi/10.3.1/../../../../arm-none-eabi/lib/thumb/v7-m/nofp\libc_nano.a(lib_a-nano-vfprintf.o)
 .ARM.attributes
                0x00000a9d       0x2d c:/vsarm/armcc/10 2021.10/bin/../lib/gcc/arm-none-eabi/10.3.1/../../../../arm-none-eabi/lib/thumb/v7-m/nofp\libc_nano.a(lib_a-nano-vfprintf_i.o)
 .ARM.attributes
                0x00000aca       0x2d c:/vsarm/armcc/10 2021.10/bin/../lib/gcc/arm-none-eabi/10.3.1/../../../../arm-none-eabi/lib/thumb/v7-m/nofp\libc_nano.a(lib_a-sbrkr.o)
 .ARM.attributes
                0x00000af7       0x2d c:/vsarm/armcc/10 2021.10/bin/../lib/gcc/arm-none-eabi/10.3.1/../../../../arm-none-eabi/lib/thumb/v7-m/nofp\libc_nano.a(lib_a-stdio.o)
 .ARM.attributes
                0x00000b24       0x2d c:/vsarm/armcc/10 2021.10/bin/../lib/gcc/arm-none-eabi/10.3.1/../../../../arm-none-eabi/lib/thumb/v7-m/nofp\libc_nano.a(lib_a-wbuf.o)
 .ARM.attributes
                0x00000b51       0x2d c:/vsarm/armcc/10 2021.10/bin/../lib/gcc/arm-none-eabi/10.3.1/../../../../arm-none-eabi/lib/thumb/v7-m/nofp\libc_nano.a(lib_a-writer.o)
 .ARM.attributes
                0x00000b7e       0x2d c:/vsarm/armcc/10 2021.10/bin/../lib/gcc/arm-none-eabi/10.3.1/../../../../arm-none-eabi/lib/thumb/v7-m/nofp\libc_nano.a(lib_a-wsetup.o)
 .ARM.attributes
                0x00000bab       0x2d c:/vsarm/armcc/10 2021.10/bin/../lib/gcc/arm-none-eabi/10.3.1/../../../../arm-none-eabi/lib/thumb/v7-m/nofp\libc_nano.a(lib_a-closer.o)
 .ARM.attributes
                0x00000bd8       0x2d c:/vsarm/armcc/10 2021.10/bin/../lib/gcc/arm-none-eabi/10.3.1/../../../../arm-none-eabi/lib/thumb/v7-m/nofp\libc_nano.a(lib_a-fflush.o)
 .ARM.attributes
                0x00000c05       0x2d c:/vsarm/armcc/10 2021.10/bin/../lib/gcc/arm-none-eabi/10.3.1/../../../../arm-none-eabi/lib/thumb/v7-m/nofp\libc_nano.a(lib_a-lseekr.o)
 .ARM.attributes
                0x00000c32       0x2d c:/vsarm/armcc/10 2021.10/bin/../lib/gcc/arm-none-eabi/10.3.1/../../../../arm-none-eabi/lib/thumb/v7-m/nofp\libc_nano.a(lib_a-makebuf.o)
 .ARM.attributes
                0x00000c5f       0x2d c:/vsarm/armcc/10 2021.10/bin/../lib/gcc/arm-none-eabi/10.3.1/../../../../arm-none-eabi/lib/thumb/v7-m/nofp\libc_nano.a(lib_a-memchr-stub.o)
 .ARM.attributes
                0x00000c8c       0x2d c:/vsarm/armcc/10 2021.10/bin/../lib/gcc/arm-none-eabi/10.3.1/../../../../arm-none-eabi/lib/thumb/v7-m/nofp\libc_nano.a(lib_a-memmove.o)
 .ARM.attributes
                0x00000cb9       0x2d c:/vsarm/armcc/10 2021.10/bin/../lib/gcc/arm-none-eabi/10.3.1/../../../../arm-none-eabi/lib/thumb/v7-m/nofp\libc_nano.a(lib_a-mlock.o)
 .ARM.attributes
                0x00000ce6       0x2d c:/vsarm/armcc/10 2021.10/bin/../lib/gcc/arm-none-eabi/10.3.1/../../../../arm-none-eabi/lib/thumb/v7-m/nofp\libc_nano.a(lib_a-nano-freer.o)
 .ARM.attributes
                0x00000d13       0x2d c:/vsarm/armcc/10 2021.10/bin/../lib/gcc/arm-none-eabi/10.3.1/../../../../arm-none-eabi/lib/thumb/v7-m/nofp\libc_nano.a(lib_a-nano-reallocr.o)
 .ARM.attributes
                0x00000d40       0x2d c:/vsarm/armcc/10 2021.10/bin/../lib/gcc/arm-none-eabi/10.3.1/../../../../arm-none-eabi/lib/thumb/v7-m/nofp\libc_nano.a(lib_a-readr.o)
 .ARM.attributes
                0x00000d6d       0x2d c:/vsarm/armcc/10 2021.10/bin/../lib/gcc/arm-none-eabi/10.3.1/../../../../arm-none-eabi/lib/thumb/v7-m/nofp\libc_nano.a(lib_a-fstatr.o)
 .ARM.attributes
                0x00000d9a       0x2d c:/vsarm/armcc/10 2021.10/bin/../lib/gcc/arm-none-eabi/10.3.1/../../../../arm-none-eabi/lib/thumb/v7-m/nofp\libc_nano.a(lib_a-isattyr.o)
 .ARM.attributes
                0x00000dc7       0x2d c:/vsarm/armcc/10 2021.10/bin/../lib/gcc/arm-none-eabi/10.3.1/../../../../arm-none-eabi/lib/thumb/v7-m/nofp\libc_nano.a(lib_a-nano-msizer.o)
 .ARM.attributes
                0x00000df4       0x2d c:/vsarm/armcc/10 2021.10/bin/../lib/gcc/arm-none-eabi/10.3.1/../../../../arm-none-eabi/lib/thumb/v7-m/nofp\libnosys.a(close.o)
 .ARM.attributes
                0x00000e21       0x2d c:/vsarm/armcc/10 2021.10/bin/../lib/gcc/arm-none-eabi/10.3.1/../../../../arm-none-eabi/lib/thumb/v7-m/nofp\libnosys.a(fstat.o)
 .ARM.attributes
                0x00000e4e       0x2d c:/vsarm/armcc/10 2021.10/bin/../lib/gcc/arm-none-eabi/10.3.1/../../../../arm-none-eabi/lib/thumb/v7-m/nofp\libnosys.a(isatty.o)
 .ARM.attributes
                0x00000e7b       0x2d c:/vsarm/armcc/10 2021.10/bin/../lib/gcc/arm-none-eabi/10.3.1/../../../../arm-none-eabi/lib/thumb/v7-m/nofp\libnosys.a(lseek.o)
 .ARM.attributes
                0x00000ea8       0x2d c:/vsarm/armcc/10 2021.10/bin/../lib/gcc/arm-none-eabi/10.3.1/../../../../arm-none-eabi/lib/thumb/v7-m/nofp\libnosys.a(read.o)
 .ARM.attributes
                0x00000ed5       0x2d c:/vsarm/armcc/10 2021.10/bin/../lib/gcc/arm-none-eabi/10.3.1/../../../../arm-none-eabi/lib/thumb/v7-m/nofp\libnosys.a(sbrk.o)
 .ARM.attributes
                0x00000f02       0x2d c:/vsarm/armcc/10 2021.10/bin/../lib/gcc/arm-none-eabi/10.3.1/../../../../arm-none-eabi/lib/thumb/v7-m/nofp\libnosys.a(write.o)
 .ARM.attributes
                0x00000f2f       0x1d c:/vsarm/armcc/10 2021.10/bin/../lib/gcc/arm-none-eabi/10.3.1/thumb/v7-m/nofp\libgcc.a(_aeabi_uldivmod.o)
 .ARM.attributes
                0x00000f4c       0x2d c:/vsarm/armcc/10 2021.10/bin/../lib/gcc/arm-none-eabi/10.3.1/thumb/v7-m/nofp\libgcc.a(_udivmoddi4.o)
 .ARM.attributes
                0x00000f79       0x1d c:/vsarm/armcc/10 2021.10/bin/../lib/gcc/arm-none-eabi/10.3.1/thumb/v7-m/nofp\libgcc.a(_dvmd_tls.o)
 .ARM.attributes
                0x00000f96       0x1d c:/vsarm/armcc/10 2021.10/bin/../lib/gcc/arm-none-eabi/10.3.1/thumb/v7-m/nofp/crtn.o
OUTPUT(build/Telnet_4.elf elf32-littlearm)
LOAD linker stubs
LOAD c:/vsarm/armcc/10 2021.10/bin/../lib/gcc/arm-none-eabi/10.3.1/../../../../arm-none-eabi/lib/thumb/v7-m/nofp\libc.a
LOAD c:/vsarm/armcc/10 2021.10/bin/../lib/gcc/arm-none-eabi/10.3.1/../../../../arm-none-eabi/lib/thumb/v7-m/nofp\libm.a
LOAD c:/vsarm/armcc/10 2021.10/bin/../lib/gcc/arm-none-eabi/10.3.1/thumb/v7-m/nofp\libgcc.a

.debug_info     0x00000000    0x29e7c
 .debug_info    0x00000000     0x1cab build/main.o
 .debug_info    0x00001cab      0x920 build/sio.o
 .debug_info    0x000025cb     0x122e build/stm32f2xx_it.o
 .debug_info    0x000037f9      0xc69 build/stm32f2xx_hal_msp.o
 .debug_info    0x00004462      0xc8d build/stm32f2xx_hal_timebase_tim.o
 .debug_info    0x000050ef     0x1c36 build/ethernetif.o
 .debug_info    0x00006d25      0x72c build/lwip.o
 .debug_info    0x00007451     0x1723 build/stm32f2xx_hal_eth.o
 .debug_info    0x00008b74      0xa94 build/stm32f2xx_hal.o
 .debug_info    0x00009608      0xb8f build/stm32f2xx_hal_rcc.o
 .debug_info    0x0000a197      0xf2c build/stm32f2xx_hal_cortex.o
 .debug_info    0x0000b0c3      0x7c8 build/stm32f2xx_hal_gpio.o
 .debug_info    0x0000b88b      0x9d5 build/stm32f2xx_hal_dma.o
 .debug_info    0x0000c260     0x2cc9 build/stm32f2xx_hal_tim.o
 .debug_info    0x0000ef29     0x15b8 build/stm32f2xx_hal_tim_ex.o
 .debug_info    0x000104e1     0x172e build/stm32f2xx_hal_uart.o
 .debug_info    0x00011c0f      0x3b6 build/system_stm32f2xx.o
 .debug_info    0x00011fc5      0x2fa build/list.o
 .debug_info    0x000122bf     0x1b50 build/queue.o
 .debug_info    0x00013e0f     0x2298 build/tasks.o
 .debug_info    0x000160a7     0x133f build/timers.o
 .debug_info    0x000173e6     0x3636 build/cmsis_os2.o
 .debug_info    0x0001aa1c      0x3ec build/heap_4.o
 .debug_info    0x0001ae08      0x4dd build/port.o
 .debug_info    0x0001b2e5      0x6ca build/ethernet.o
 .debug_info    0x0001b9af      0x901 build/slipif.o
 .debug_info    0x0001c2b0      0xa25 build/tcpip.o
 .debug_info    0x0001ccd5      0x36c build/def.o
 .debug_info    0x0001d041       0xb1 build/init.o
 .debug_info    0x0001d0f2      0x54b build/ip.o
 .debug_info    0x0001d63d      0x52b build/mem.o
 .debug_info    0x0001db68      0x7a3 build/memp.o
 .debug_info    0x0001e30b      0x8f1 build/netif.o
 .debug_info    0x0001ebfc     0x160d build/pbuf.o
 .debug_info    0x00020209     0x1c71 build/tcp.o
 .debug_info    0x00021e7a     0x1251 build/tcp_in.o
 .debug_info    0x000230cb     0x157a build/tcp_out.o
 .debug_info    0x00024645      0xd0a build/timeouts.o
 .debug_info    0x0002534f      0xdc3 build/udp.o
 .debug_info    0x00026112      0xdef build/etharp.o
 .debug_info    0x00026f01      0x878 build/icmp.o
 .debug_info    0x00027779      0x927 build/ip4.o
 .debug_info    0x000280a0      0x708 build/ip4_addr.o
 .debug_info    0x000287a8      0xce6 build/ip4_frag.o
 .debug_info    0x0002948e      0x9cc build/sys_arch.o
 .debug_info    0x00029e5a       0x22 build/startup_stm32f207xx.o

.debug_abbrev   0x00000000     0x60c6
 .debug_abbrev  0x00000000      0x32a build/main.o
 .debug_abbrev  0x0000032a      0x1b8 build/sio.o
 .debug_abbrev  0x000004e2      0x173 build/stm32f2xx_it.o
 .debug_abbrev  0x00000655      0x187 build/stm32f2xx_hal_msp.o
 .debug_abbrev  0x000007dc      0x1a4 build/stm32f2xx_hal_timebase_tim.o
 .debug_abbrev  0x00000980      0x30d build/ethernetif.o
 .debug_abbrev  0x00000c8d      0x151 build/lwip.o
 .debug_abbrev  0x00000dde      0x244 build/stm32f2xx_hal_eth.o
 .debug_abbrev  0x00001022      0x249 build/stm32f2xx_hal.o
 .debug_abbrev  0x0000126b      0x27f build/stm32f2xx_hal_rcc.o
 .debug_abbrev  0x000014ea      0x2f3 build/stm32f2xx_hal_cortex.o
 .debug_abbrev  0x000017dd      0x1ba build/stm32f2xx_hal_gpio.o
 .debug_abbrev  0x00001997      0x245 build/stm32f2xx_hal_dma.o
 .debug_abbrev  0x00001bdc      0x230 build/stm32f2xx_hal_tim.o
 .debug_abbrev  0x00001e0c      0x238 build/stm32f2xx_hal_tim_ex.o
 .debug_abbrev  0x00002044      0x24b build/stm32f2xx_hal_uart.o
 .debug_abbrev  0x0000228f      0x115 build/system_stm32f2xx.o
 .debug_abbrev  0x000023a4       0xf1 build/list.o
 .debug_abbrev  0x00002495      0x31f build/queue.o
 .debug_abbrev  0x000027b4      0x2e7 build/tasks.o
 .debug_abbrev  0x00002a9b      0x2a4 build/timers.o
 .debug_abbrev  0x00002d3f      0x37e build/cmsis_os2.o
 .debug_abbrev  0x000030bd      0x1d6 build/heap_4.o
 .debug_abbrev  0x00003293      0x248 build/port.o
 .debug_abbrev  0x000034db      0x1f7 build/ethernet.o
 .debug_abbrev  0x000036d2      0x229 build/slipif.o
 .debug_abbrev  0x000038fb      0x276 build/tcpip.o
 .debug_abbrev  0x00003b71      0x10c build/def.o
 .debug_abbrev  0x00003c7d       0x66 build/init.o
 .debug_abbrev  0x00003ce3      0x10c build/ip.o
 .debug_abbrev  0x00003def      0x161 build/mem.o
 .debug_abbrev  0x00003f50      0x1f2 build/memp.o
 .debug_abbrev  0x00004142      0x243 build/netif.o
 .debug_abbrev  0x00004385      0x28e build/pbuf.o
 .debug_abbrev  0x00004613      0x345 build/tcp.o
 .debug_abbrev  0x00004958      0x293 build/tcp_in.o
 .debug_abbrev  0x00004beb      0x28b build/tcp_out.o
 .debug_abbrev  0x00004e76      0x2ab build/timeouts.o
 .debug_abbrev  0x00005121      0x29a build/udp.o
 .debug_abbrev  0x000053bb      0x234 build/etharp.o
 .debug_abbrev  0x000055ef      0x20b build/icmp.o
 .debug_abbrev  0x000057fa      0x1cc build/ip4.o
 .debug_abbrev  0x000059c6      0x212 build/ip4_addr.o
 .debug_abbrev  0x00005bd8      0x266 build/ip4_frag.o
 .debug_abbrev  0x00005e3e      0x276 build/sys_arch.o
 .debug_abbrev  0x000060b4       0x12 build/startup_stm32f207xx.o

.debug_loc      0x00000000    0x114ce
 .debug_loc     0x00000000      0x5fa build/main.o
 .debug_loc     0x000005fa      0x268 build/sio.o
 .debug_loc     0x00000862      0x1d0 build/stm32f2xx_it.o
 .debug_loc     0x00000a32       0xf0 build/stm32f2xx_hal_msp.o
 .debug_loc     0x00000b22       0xda build/stm32f2xx_hal_timebase_tim.o
 .debug_loc     0x00000bfc      0x3a8 build/ethernetif.o
 .debug_loc     0x00000fa4       0x44 build/lwip.o
 .debug_loc     0x00000fe8      0xace build/stm32f2xx_hal_eth.o
 .debug_loc     0x00001ab6      0x750 build/stm32f2xx_hal.o
 .debug_loc     0x00002206      0x426 build/stm32f2xx_hal_rcc.o
 .debug_loc     0x0000262c      0x9f4 build/stm32f2xx_hal_cortex.o
 .debug_loc     0x00003020      0x2d4 build/stm32f2xx_hal_gpio.o
 .debug_loc     0x000032f4      0x510 build/stm32f2xx_hal_dma.o
 .debug_loc     0x00003804     0x27a0 build/stm32f2xx_hal_tim.o
 .debug_loc     0x00005fa4      0xdc8 build/stm32f2xx_hal_tim_ex.o
 .debug_loc     0x00006d6c     0x143c build/stm32f2xx_hal_uart.o
 .debug_loc     0x000081a8       0xa0 build/system_stm32f2xx.o
 .debug_loc     0x00008248      0x1cc build/list.o
 .debug_loc     0x00008414      0xd11 build/queue.o
 .debug_loc     0x00009125     0x130b build/tasks.o
 .debug_loc     0x0000a430      0x801 build/timers.o
 .debug_loc     0x0000ac31     0x14be build/cmsis_os2.o
 .debug_loc     0x0000c0ef      0x224 build/heap_4.o
 .debug_loc     0x0000c313      0x30c build/port.o
 .debug_loc     0x0000c61f       0xa0 build/ethernet.o
 .debug_loc     0x0000c6bf      0x358 build/slipif.o
 .debug_loc     0x0000ca17      0x3f8 build/tcpip.o
 .debug_loc     0x0000ce0f      0x21c build/def.o
 .debug_loc     0x0000d02b       0x50 build/init.o
 .debug_loc     0x0000d07b      0x1e0 build/mem.o
 .debug_loc     0x0000d25b      0x28c build/memp.o
 .debug_loc     0x0000d4e7      0x530 build/netif.o
 .debug_loc     0x0000da17      0x8d8 build/pbuf.o
 .debug_loc     0x0000e2ef      0xe61 build/tcp.o
 .debug_loc     0x0000f150      0x322 build/tcp_in.o
 .debug_loc     0x0000f472      0x504 build/tcp_out.o
 .debug_loc     0x0000f976      0x2d8 build/timeouts.o
 .debug_loc     0x0000fc4e      0x531 build/udp.o
 .debug_loc     0x0001017f      0x460 build/etharp.o
 .debug_loc     0x000105df      0x141 build/icmp.o
 .debug_loc     0x00010720      0x19c build/ip4.o
 .debug_loc     0x000108bc      0x1f8 build/ip4_addr.o
 .debug_loc     0x00010ab4      0x350 build/ip4_frag.o
 .debug_loc     0x00010e04      0x6ca build/sys_arch.o

.debug_aranges  0x00000000     0x1fc0
 .debug_aranges
                0x00000000       0xb8 build/main.o
 .debug_aranges
                0x000000b8       0x58 build/sio.o
 .debug_aranges
                0x00000110       0x68 build/stm32f2xx_it.o
 .debug_aranges
                0x00000178       0x30 build/stm32f2xx_hal_msp.o
 .debug_aranges
                0x000001a8       0x30 build/stm32f2xx_hal_timebase_tim.o
 .debug_aranges
                0x000001d8       0x80 build/ethernetif.o
 .debug_aranges
                0x00000258       0x20 build/lwip.o
 .debug_aranges
                0x00000278      0x118 build/stm32f2xx_hal_eth.o
 .debug_aranges
                0x00000390       0xf0 build/stm32f2xx_hal.o
 .debug_aranges
                0x00000480       0x88 build/stm32f2xx_hal_rcc.o
 .debug_aranges
                0x00000508      0x118 build/stm32f2xx_hal_cortex.o
 .debug_aranges
                0x00000620       0x58 build/stm32f2xx_hal_gpio.o
 .debug_aranges
                0x00000678       0x90 build/stm32f2xx_hal_dma.o
 .debug_aranges
                0x00000708      0x3d0 build/stm32f2xx_hal_tim.o
 .debug_aranges
                0x00000ad8      0x168 build/stm32f2xx_hal_tim_ex.o
 .debug_aranges
                0x00000c40      0x200 build/stm32f2xx_hal_uart.o
 .debug_aranges
                0x00000e40       0x28 build/system_stm32f2xx.o
 .debug_aranges
                0x00000e68       0x40 build/list.o
 .debug_aranges
                0x00000ea8      0x158 build/queue.o
 .debug_aranges
                0x00001000      0x1f8 build/tasks.o
 .debug_aranges
                0x000011f8       0xe0 build/timers.o
 .debug_aranges
                0x000012d8      0x228 build/cmsis_os2.o
 .debug_aranges
                0x00001500       0x50 build/heap_4.o
 .debug_aranges
                0x00001550       0x78 build/port.o
 .debug_aranges
                0x000015c8       0x28 build/ethernet.o
 .debug_aranges
                0x000015f0       0x70 build/slipif.o
 .debug_aranges
                0x00001660       0x80 build/tcpip.o
 .debug_aranges
                0x000016e0       0x48 build/def.o
 .debug_aranges
                0x00001728       0x20 build/init.o
 .debug_aranges
                0x00001748       0x18 build/ip.o
 .debug_aranges
                0x00001760       0x48 build/mem.o
 .debug_aranges
                0x000017a8       0x58 build/memp.o
 .debug_aranges
                0x00001800       0x98 build/netif.o
 .debug_aranges
                0x00001898       0xf8 build/pbuf.o
 .debug_aranges
                0x00001990      0x188 build/tcp.o
 .debug_aranges
                0x00001b18       0x68 build/tcp_in.o
 .debug_aranges
                0x00001b80       0x98 build/tcp_out.o
 .debug_aranges
                0x00001c18       0x68 build/timeouts.o
 .debug_aranges
                0x00001c80       0x98 build/udp.o
 .debug_aranges
                0x00001d18       0x88 build/etharp.o
 .debug_aranges
                0x00001da0       0x38 build/icmp.o
 .debug_aranges
                0x00001dd8       0x40 build/ip4.o
 .debug_aranges
                0x00001e18       0x48 build/ip4_addr.o
 .debug_aranges
                0x00001e60       0x70 build/ip4_frag.o
 .debug_aranges
                0x00001ed0       0xc8 build/sys_arch.o
 .debug_aranges
                0x00001f98       0x28 build/startup_stm32f207xx.o

.debug_ranges   0x00000000     0x1e00
 .debug_ranges  0x00000000       0xa8 build/main.o
 .debug_ranges  0x000000a8       0x48 build/sio.o
 .debug_ranges  0x000000f0       0x58 build/stm32f2xx_it.o
 .debug_ranges  0x00000148       0x20 build/stm32f2xx_hal_msp.o
 .debug_ranges  0x00000168       0x20 build/stm32f2xx_hal_timebase_tim.o
 .debug_ranges  0x00000188       0x70 build/ethernetif.o
 .debug_ranges  0x000001f8       0x10 build/lwip.o
 .debug_ranges  0x00000208      0x108 build/stm32f2xx_hal_eth.o
 .debug_ranges  0x00000310       0xe0 build/stm32f2xx_hal.o
 .debug_ranges  0x000003f0       0x78 build/stm32f2xx_hal_rcc.o
 .debug_ranges  0x00000468      0x108 build/stm32f2xx_hal_cortex.o
 .debug_ranges  0x00000570       0x48 build/stm32f2xx_hal_gpio.o
 .debug_ranges  0x000005b8       0x80 build/stm32f2xx_hal_dma.o
 .debug_ranges  0x00000638      0x3c0 build/stm32f2xx_hal_tim.o
 .debug_ranges  0x000009f8      0x158 build/stm32f2xx_hal_tim_ex.o
 .debug_ranges  0x00000b50      0x220 build/stm32f2xx_hal_uart.o
 .debug_ranges  0x00000d70       0x18 build/system_stm32f2xx.o
 .debug_ranges  0x00000d88       0x30 build/list.o
 .debug_ranges  0x00000db8      0x148 build/queue.o
 .debug_ranges  0x00000f00      0x1e8 build/tasks.o
 .debug_ranges  0x000010e8       0xd0 build/timers.o
 .debug_ranges  0x000011b8      0x218 build/cmsis_os2.o
 .debug_ranges  0x000013d0       0x40 build/heap_4.o
 .debug_ranges  0x00001410       0x68 build/port.o
 .debug_ranges  0x00001478       0x18 build/ethernet.o
 .debug_ranges  0x00001490       0x60 build/slipif.o
 .debug_ranges  0x000014f0       0x70 build/tcpip.o
 .debug_ranges  0x00001560       0x38 build/def.o
 .debug_ranges  0x00001598       0x10 build/init.o
 .debug_ranges  0x000015a8       0x38 build/mem.o
 .debug_ranges  0x000015e0       0x48 build/memp.o
 .debug_ranges  0x00001628       0x88 build/netif.o
 .debug_ranges  0x000016b0       0xe8 build/pbuf.o
 .debug_ranges  0x00001798      0x178 build/tcp.o
 .debug_ranges  0x00001910       0xa0 build/tcp_in.o
 .debug_ranges  0x000019b0      0x100 build/tcp_out.o
 .debug_ranges  0x00001ab0       0x58 build/timeouts.o
 .debug_ranges  0x00001b08       0x88 build/udp.o
 .debug_ranges  0x00001b90       0x78 build/etharp.o
 .debug_ranges  0x00001c08       0x40 build/icmp.o
 .debug_ranges  0x00001c48       0x30 build/ip4.o
 .debug_ranges  0x00001c78       0x38 build/ip4_addr.o
 .debug_ranges  0x00001cb0       0x78 build/ip4_frag.o
 .debug_ranges  0x00001d28       0xb8 build/sys_arch.o
 .debug_ranges  0x00001de0       0x20 build/startup_stm32f207xx.o

.debug_line     0x00000000    0x19d8e
 .debug_line    0x00000000      0x812 build/main.o
 .debug_line    0x00000812      0x38a build/sio.o
 .debug_line    0x00000b9c      0x285 build/stm32f2xx_it.o
 .debug_line    0x00000e21      0x222 build/stm32f2xx_hal_msp.o
 .debug_line    0x00001043      0x231 build/stm32f2xx_hal_timebase_tim.o
 .debug_line    0x00001274      0x77d build/ethernetif.o
 .debug_line    0x000019f1      0x1f4 build/lwip.o
 .debug_line    0x00001be5     0x119a build/stm32f2xx_hal_eth.o
 .debug_line    0x00002d7f      0x4de build/stm32f2xx_hal.o
 .debug_line    0x0000325d      0x987 build/stm32f2xx_hal_rcc.o
 .debug_line    0x00003be4      0x73b build/stm32f2xx_hal_cortex.o
 .debug_line    0x0000431f      0x5db build/stm32f2xx_hal_gpio.o
 .debug_line    0x000048fa      0x9ea build/stm32f2xx_hal_dma.o
 .debug_line    0x000052e4     0x30bd build/stm32f2xx_hal_tim.o
 .debug_line    0x000083a1     0x146f build/stm32f2xx_hal_tim_ex.o
 .debug_line    0x00009810     0x1550 build/stm32f2xx_hal_uart.o
 .debug_line    0x0000ad60      0x1ba build/system_stm32f2xx.o
 .debug_line    0x0000af1a      0x279 build/list.o
 .debug_line    0x0000b193     0x1263 build/queue.o
 .debug_line    0x0000c3f6     0x18ab build/tasks.o
 .debug_line    0x0000dca1      0x865 build/timers.o
 .debug_line    0x0000e506     0x1fd3 build/cmsis_os2.o
 .debug_line    0x000104d9      0x442 build/heap_4.o
 .debug_line    0x0001091b      0x430 build/port.o
 .debug_line    0x00010d4b      0x2ef build/ethernet.o
 .debug_line    0x0001103a      0x53e build/slipif.o
 .debug_line    0x00011578      0x477 build/tcpip.o
 .debug_line    0x000119ef      0x318 build/def.o
 .debug_line    0x00011d07       0xbf build/init.o
 .debug_line    0x00011dc6      0x197 build/ip.o
 .debug_line    0x00011f5d      0x5ca build/mem.o
 .debug_line    0x00012527      0x361 build/memp.o
 .debug_line    0x00012888      0x4bb build/netif.o
 .debug_line    0x00012d43      0xcc1 build/pbuf.o
 .debug_line    0x00013a04     0x125c build/tcp.o
 .debug_line    0x00014c60     0x143e build/tcp_in.o
 .debug_line    0x0001609e      0xdfa build/tcp_out.o
 .debug_line    0x00016e98      0x5c0 build/timeouts.o
 .debug_line    0x00017458      0x726 build/udp.o
 .debug_line    0x00017b7e      0x8a6 build/etharp.o
 .debug_line    0x00018424      0x327 build/icmp.o
 .debug_line    0x0001874b      0x4a5 build/ip4.o
 .debug_line    0x00018bf0      0x4bc build/ip4_addr.o
 .debug_line    0x000190ac      0x7e8 build/ip4_frag.o
 .debug_line    0x00019894      0x484 build/sys_arch.o
 .debug_line    0x00019d18       0x76 build/startup_stm32f207xx.o

.debug_str      0x00000000     0xa390
 .debug_str     0x00000000     0x12e5 build/main.o
                               0x1439 (size before relaxing)
 .debug_str     0x000012e5       0xc7 build/sio.o
                                0x778 (size before relaxing)
 .debug_str     0x000013ac      0x4dc build/stm32f2xx_it.o
                                0xdf1 (size before relaxing)
 .debug_str     0x00001888      0x541 build/stm32f2xx_hal_msp.o
                                0xc60 (size before relaxing)
 .debug_str     0x00001dc9       0xbc build/stm32f2xx_hal_timebase_tim.o
                                0xdc4 (size before relaxing)
 .debug_str     0x00001e85      0x550 build/ethernetif.o
                               0x1880 (size before relaxing)
 .debug_str     0x000023d5       0x5c build/lwip.o
                                0x877 (size before relaxing)
 .debug_str     0x00002431      0x500 build/stm32f2xx_hal_eth.o
                                0xeb4 (size before relaxing)
 .debug_str     0x00002931      0x2e5 build/stm32f2xx_hal.o
                                0xb12 (size before relaxing)
 .debug_str     0x00002c16      0x1e2 build/stm32f2xx_hal_rcc.o
                                0x6b0 (size before relaxing)
 .debug_str     0x00002df8      0x4d9 build/stm32f2xx_hal_cortex.o
                                0xc0a (size before relaxing)
 .debug_str     0x000032d1      0x114 build/stm32f2xx_hal_gpio.o
                                0x4a7 (size before relaxing)
 .debug_str     0x000033e5      0x303 build/stm32f2xx_hal_dma.o
                                0x742 (size before relaxing)
 .debug_str     0x000036e8      0xe9a build/stm32f2xx_hal_tim.o
                               0x1637 (size before relaxing)
 .debug_str     0x00004582      0x5c2 build/stm32f2xx_hal_tim_ex.o
                                0xde8 (size before relaxing)
 .debug_str     0x00004b44      0x5d2 build/stm32f2xx_hal_uart.o
                                0xc71 (size before relaxing)
 .debug_str     0x00005116       0x47 build/system_stm32f2xx.o
                                0x2f9 (size before relaxing)
 .debug_str     0x0000515d      0x142 build/list.o
                                0x2da (size before relaxing)
 .debug_str     0x0000529f      0x7cc build/queue.o
                                0xa84 (size before relaxing)
 .debug_str     0x00005a6b      0xd2c build/tasks.o
                               0x1136 (size before relaxing)
 .debug_str     0x00006797      0x5a0 build/timers.o
                                0xa53 (size before relaxing)
 .debug_str     0x00006d37      0x951 build/cmsis_os2.o
                               0x13d3 (size before relaxing)
 .debug_str     0x00007688      0x1ec build/heap_4.o
                                0x3a4 (size before relaxing)
 .debug_str     0x00007874      0x1fd build/port.o
                                0x420 (size before relaxing)
 .debug_str     0x00007a71      0x1af build/ethernet.o
                                0x5df (size before relaxing)
 .debug_str     0x00007c20      0x162 build/slipif.o
                                0x534 (size before relaxing)
 .debug_str     0x00007d82      0x225 build/tcpip.o
                                0x6cb (size before relaxing)
 .debug_str     0x00007fa7       0xc5 build/def.o
                                0x272 (size before relaxing)
 .debug_str     0x0000806c       0x37 build/init.o
                                0x199 (size before relaxing)
 .debug_str     0x000080a3       0xee build/ip.o
                                0x488 (size before relaxing)
 .debug_str     0x00008191       0xcb build/mem.o
                                0x415 (size before relaxing)
 .debug_str     0x0000825c      0x3bf build/memp.o
                                0x683 (size before relaxing)
 .debug_str     0x0000861b      0x16b build/netif.o
                                0x5b1 (size before relaxing)
 .debug_str     0x00008786      0x5c0 build/pbuf.o
                                0xad2 (size before relaxing)
 .debug_str     0x00008d46      0x4e5 build/tcp.o
                                0xcb4 (size before relaxing)
 .debug_str     0x0000922b      0x1c7 build/tcp_in.o
                                0xa70 (size before relaxing)
 .debug_str     0x000093f2      0x1f3 build/tcp_out.o
                                0xa06 (size before relaxing)
 .debug_str     0x000095e5      0x1a1 build/timeouts.o
                                0x820 (size before relaxing)
 .debug_str     0x00009786      0x1ed build/udp.o
                                0x7e4 (size before relaxing)
 .debug_str     0x00009973      0x34a build/etharp.o
                                0x907 (size before relaxing)
 .debug_str     0x00009cbd       0xcf build/icmp.o
                                0x5fb (size before relaxing)
 .debug_str     0x00009d8c       0xac build/ip4.o
                                0x654 (size before relaxing)
 .debug_str     0x00009e38       0xc7 build/ip4_addr.o
                                0x46c (size before relaxing)
 .debug_str     0x00009eff      0x293 build/ip4_frag.o
                                0x810 (size before relaxing)
 .debug_str     0x0000a192      0x1da build/sys_arch.o
                                0xa6b (size before relaxing)
 .debug_str     0x0000a36c       0x24 build/startup_stm32f207xx.o
                                 0x58 (size before relaxing)

.comment        0x00000000       0x49
 .comment       0x00000000       0x49 build/main.o
                                 0x4a (size before relaxing)
 .comment       0x00000049       0x4a build/sio.o
 .comment       0x00000049       0x4a build/stm32f2xx_it.o
 .comment       0x00000049       0x4a build/stm32f2xx_hal_msp.o
 .comment       0x00000049       0x4a build/stm32f2xx_hal_timebase_tim.o
 .comment       0x00000049       0x4a build/ethernetif.o
 .comment       0x00000049       0x4a build/lwip.o
 .comment       0x00000049       0x4a build/stm32f2xx_hal_eth.o
 .comment       0x00000049       0x4a build/stm32f2xx_hal.o
 .comment       0x00000049       0x4a build/stm32f2xx_hal_rcc.o
 .comment       0x00000049       0x4a build/stm32f2xx_hal_cortex.o
 .comment       0x00000049       0x4a build/stm32f2xx_hal_gpio.o
 .comment       0x00000049       0x4a build/stm32f2xx_hal_dma.o
 .comment       0x00000049       0x4a build/stm32f2xx_hal_tim.o
 .comment       0x00000049       0x4a build/stm32f2xx_hal_tim_ex.o
 .comment       0x00000049       0x4a build/stm32f2xx_hal_uart.o
 .comment       0x00000049       0x4a build/system_stm32f2xx.o
 .comment       0x00000049       0x4a build/list.o
 .comment       0x00000049       0x4a build/queue.o
 .comment       0x00000049       0x4a build/tasks.o
 .comment       0x00000049       0x4a build/timers.o
 .comment       0x00000049       0x4a build/cmsis_os2.o
 .comment       0x00000049       0x4a build/heap_4.o
 .comment       0x00000049       0x4a build/port.o
 .comment       0x00000049       0x4a build/ethernet.o
 .comment       0x00000049       0x4a build/slipif.o
 .comment       0x00000049       0x4a build/tcpip.o
 .comment       0x00000049       0x4a build/def.o
 .comment       0x00000049       0x4a build/init.o
 .comment       0x00000049       0x4a build/ip.o
 .comment       0x00000049       0x4a build/mem.o
 .comment       0x00000049       0x4a build/memp.o
 .comment       0x00000049       0x4a build/netif.o
 .comment       0x00000049       0x4a build/pbuf.o
 .comment       0x00000049       0x4a build/tcp.o
 .comment       0x00000049       0x4a build/tcp_in.o
 .comment       0x00000049       0x4a build/tcp_out.o
 .comment       0x00000049       0x4a build/timeouts.o
 .comment       0x00000049       0x4a build/udp.o
 .comment       0x00000049       0x4a build/etharp.o
 .comment       0x00000049       0x4a build/icmp.o
 .comment       0x00000049       0x4a build/ip4.o
 .comment       0x00000049       0x4a build/ip4_addr.o
 .comment       0x00000049       0x4a build/ip4_frag.o
 .comment       0x00000049       0x4a build/sys_arch.o

.debug_frame    0x00000000     0x8bb4
 .debug_frame   0x00000000      0x2e8 build/main.o
 .debug_frame   0x000002e8      0x130 build/sio.o
 .debug_frame   0x00000418      0x118 build/stm32f2xx_it.o
 .debug_frame   0x00000530       0x7c build/stm32f2xx_hal_msp.o
 .debug_frame   0x000005ac       0x74 build/stm32f2xx_hal_timebase_tim.o
 .debug_frame   0x00000620      0x1d0 build/ethernetif.o
 .debug_frame   0x000007f0       0x34 build/lwip.o
 .debug_frame   0x00000824      0x4dc build/stm32f2xx_hal_eth.o
 .debug_frame   0x00000d00      0x384 build/stm32f2xx_hal.o
 .debug_frame   0x00001084      0x208 build/stm32f2xx_hal_rcc.o
 .debug_frame   0x0000128c      0x498 build/stm32f2xx_hal_cortex.o
 .debug_frame   0x00001724      0x14c build/stm32f2xx_hal_gpio.o
 .debug_frame   0x00001870      0x250 build/stm32f2xx_hal_dma.o
 .debug_frame   0x00001ac0     0x11bc build/stm32f2xx_hal_tim.o
 .debug_frame   0x00002c7c      0x638 build/stm32f2xx_hal_tim_ex.o
 .debug_frame   0x000032b4      0x914 build/stm32f2xx_hal_uart.o
 .debug_frame   0x00003bc8       0x58 build/system_stm32f2xx.o
 .debug_frame   0x00003c20       0xd8 build/list.o
 .debug_frame   0x00003cf8      0x5ec build/queue.o
 .debug_frame   0x000042e4      0x8a8 build/tasks.o
 .debug_frame   0x00004b8c      0x3b4 build/timers.o
 .debug_frame   0x00004f40      0x980 build/cmsis_os2.o
 .debug_frame   0x000058c0      0x108 build/heap_4.o
 .debug_frame   0x000059c8      0x198 build/port.o
 .debug_frame   0x00005b60       0x58 build/ethernet.o
 .debug_frame   0x00005bb8      0x19c build/slipif.o
 .debug_frame   0x00005d54      0x1e0 build/tcpip.o
 .debug_frame   0x00005f34       0xfc build/def.o
 .debug_frame   0x00006030       0x34 build/init.o
 .debug_frame   0x00006064       0xe8 build/mem.o
 .debug_frame   0x0000614c      0x134 build/memp.o
 .debug_frame   0x00006280      0x260 build/netif.o
 .debug_frame   0x000064e0      0x40c build/pbuf.o
 .debug_frame   0x000068ec      0x6a8 build/tcp.o
 .debug_frame   0x00006f94      0x194 build/tcp_in.o
 .debug_frame   0x00007128      0x280 build/tcp_out.o
 .debug_frame   0x000073a8      0x168 build/timeouts.o
 .debug_frame   0x00007510      0x268 build/udp.o
 .debug_frame   0x00007778      0x228 build/etharp.o
 .debug_frame   0x000079a0       0xa8 build/icmp.o
 .debug_frame   0x00007a48       0xcc build/ip4.o
 .debug_frame   0x00007b14       0xf4 build/ip4_addr.o
 .debug_frame   0x00007c08      0x1a0 build/ip4_frag.o
 .debug_frame   0x00007da8      0x328 build/sys_arch.o
 .debug_frame   0x000080d0       0x2c c:/vsarm/armcc/10 2021.10/bin/../lib/gcc/arm-none-eabi/10.3.1/../../../../arm-none-eabi/lib/thumb/v7-m/nofp\libc_nano.a(lib_a-init.o)
 .debug_frame   0x000080fc       0x28 c:/vsarm/armcc/10 2021.10/bin/../lib/gcc/arm-none-eabi/10.3.1/../../../../arm-none-eabi/lib/thumb/v7-m/nofp\libc_nano.a(lib_a-memcmp.o)
 .debug_frame   0x00008124       0x28 c:/vsarm/armcc/10 2021.10/bin/../lib/gcc/arm-none-eabi/10.3.1/../../../../arm-none-eabi/lib/thumb/v7-m/nofp\libc_nano.a(lib_a-memcpy-stub.o)
 .debug_frame   0x0000814c       0x20 c:/vsarm/armcc/10 2021.10/bin/../lib/gcc/arm-none-eabi/10.3.1/../../../../arm-none-eabi/lib/thumb/v7-m/nofp\libc_nano.a(lib_a-memset.o)
 .debug_frame   0x0000816c       0x74 c:/vsarm/armcc/10 2021.10/bin/../lib/gcc/arm-none-eabi/10.3.1/../../../../arm-none-eabi/lib/thumb/v7-m/nofp\libc_nano.a(lib_a-printf.o)
 .debug_frame   0x000081e0       0x6c c:/vsarm/armcc/10 2021.10/bin/../lib/gcc/arm-none-eabi/10.3.1/../../../../arm-none-eabi/lib/thumb/v7-m/nofp\libc_nano.a(lib_a-sprintf.o)
 .debug_frame   0x0000824c      0x14c c:/vsarm/armcc/10 2021.10/bin/../lib/gcc/arm-none-eabi/10.3.1/../../../../arm-none-eabi/lib/thumb/v7-m/nofp\libc_nano.a(lib_a-findfp.o)
 .debug_frame   0x00008398       0x54 c:/vsarm/armcc/10 2021.10/bin/../lib/gcc/arm-none-eabi/10.3.1/../../../../arm-none-eabi/lib/thumb/v7-m/nofp\libc_nano.a(lib_a-fwalk.o)
 .debug_frame   0x000083ec       0xb0 c:/vsarm/armcc/10 2021.10/bin/../lib/gcc/arm-none-eabi/10.3.1/../../../../arm-none-eabi/lib/thumb/v7-m/nofp\libc_nano.a(lib_a-lock.o)
 .debug_frame   0x0000849c       0x4c c:/vsarm/armcc/10 2021.10/bin/../lib/gcc/arm-none-eabi/10.3.1/../../../../arm-none-eabi/lib/thumb/v7-m/nofp\libc_nano.a(lib_a-nano-mallocr.o)
 .debug_frame   0x000084e8       0x90 c:/vsarm/armcc/10 2021.10/bin/../lib/gcc/arm-none-eabi/10.3.1/../../../../arm-none-eabi/lib/thumb/v7-m/nofp\libc_nano.a(lib_a-nano-svfprintf.o)
 .debug_frame   0x00008578       0xac c:/vsarm/armcc/10 2021.10/bin/../lib/gcc/arm-none-eabi/10.3.1/../../../../arm-none-eabi/lib/thumb/v7-m/nofp\libc_nano.a(lib_a-nano-vfprintf.o)
 .debug_frame   0x00008624       0x60 c:/vsarm/armcc/10 2021.10/bin/../lib/gcc/arm-none-eabi/10.3.1/../../../../arm-none-eabi/lib/thumb/v7-m/nofp\libc_nano.a(lib_a-nano-vfprintf_i.o)
 .debug_frame   0x00008684       0x2c c:/vsarm/armcc/10 2021.10/bin/../lib/gcc/arm-none-eabi/10.3.1/../../../../arm-none-eabi/lib/thumb/v7-m/nofp\libc_nano.a(lib_a-sbrkr.o)
 .debug_frame   0x000086b0       0x88 c:/vsarm/armcc/10 2021.10/bin/../lib/gcc/arm-none-eabi/10.3.1/../../../../arm-none-eabi/lib/thumb/v7-m/nofp\libc_nano.a(lib_a-stdio.o)
 .debug_frame   0x00008738       0x40 c:/vsarm/armcc/10 2021.10/bin/../lib/gcc/arm-none-eabi/10.3.1/../../../../arm-none-eabi/lib/thumb/v7-m/nofp\libc_nano.a(lib_a-wbuf.o)
 .debug_frame   0x00008778       0x2c c:/vsarm/armcc/10 2021.10/bin/../lib/gcc/arm-none-eabi/10.3.1/../../../../arm-none-eabi/lib/thumb/v7-m/nofp\libc_nano.a(lib_a-writer.o)
 .debug_frame   0x000087a4       0x2c c:/vsarm/armcc/10 2021.10/bin/../lib/gcc/arm-none-eabi/10.3.1/../../../../arm-none-eabi/lib/thumb/v7-m/nofp\libc_nano.a(lib_a-wsetup.o)
 .debug_frame   0x000087d0       0x2c c:/vsarm/armcc/10 2021.10/bin/../lib/gcc/arm-none-eabi/10.3.1/../../../../arm-none-eabi/lib/thumb/v7-m/nofp\libc_nano.a(lib_a-closer.o)
 .debug_frame   0x000087fc       0x5c c:/vsarm/armcc/10 2021.10/bin/../lib/gcc/arm-none-eabi/10.3.1/../../../../arm-none-eabi/lib/thumb/v7-m/nofp\libc_nano.a(lib_a-fflush.o)
 .debug_frame   0x00008858       0x2c c:/vsarm/armcc/10 2021.10/bin/../lib/gcc/arm-none-eabi/10.3.1/../../../../arm-none-eabi/lib/thumb/v7-m/nofp\libc_nano.a(lib_a-lseekr.o)
 .debug_frame   0x00008884       0x58 c:/vsarm/armcc/10 2021.10/bin/../lib/gcc/arm-none-eabi/10.3.1/../../../../arm-none-eabi/lib/thumb/v7-m/nofp\libc_nano.a(lib_a-makebuf.o)
 .debug_frame   0x000088dc       0x28 c:/vsarm/armcc/10 2021.10/bin/../lib/gcc/arm-none-eabi/10.3.1/../../../../arm-none-eabi/lib/thumb/v7-m/nofp\libc_nano.a(lib_a-memchr-stub.o)
 .debug_frame   0x00008904       0x28 c:/vsarm/armcc/10 2021.10/bin/../lib/gcc/arm-none-eabi/10.3.1/../../../../arm-none-eabi/lib/thumb/v7-m/nofp\libc_nano.a(lib_a-memmove.o)
 .debug_frame   0x0000892c       0x30 c:/vsarm/armcc/10 2021.10/bin/../lib/gcc/arm-none-eabi/10.3.1/../../../../arm-none-eabi/lib/thumb/v7-m/nofp\libc_nano.a(lib_a-mlock.o)
 .debug_frame   0x0000895c       0x38 c:/vsarm/armcc/10 2021.10/bin/../lib/gcc/arm-none-eabi/10.3.1/../../../../arm-none-eabi/lib/thumb/v7-m/nofp\libc_nano.a(lib_a-nano-freer.o)
 .debug_frame   0x00008994       0x3c c:/vsarm/armcc/10 2021.10/bin/../lib/gcc/arm-none-eabi/10.3.1/../../../../arm-none-eabi/lib/thumb/v7-m/nofp\libc_nano.a(lib_a-nano-reallocr.o)
 .debug_frame   0x000089d0       0x2c c:/vsarm/armcc/10 2021.10/bin/../lib/gcc/arm-none-eabi/10.3.1/../../../../arm-none-eabi/lib/thumb/v7-m/nofp\libc_nano.a(lib_a-readr.o)
 .debug_frame   0x000089fc       0x2c c:/vsarm/armcc/10 2021.10/bin/../lib/gcc/arm-none-eabi/10.3.1/../../../../arm-none-eabi/lib/thumb/v7-m/nofp\libc_nano.a(lib_a-fstatr.o)
 .debug_frame   0x00008a28       0x2c c:/vsarm/armcc/10 2021.10/bin/../lib/gcc/arm-none-eabi/10.3.1/../../../../arm-none-eabi/lib/thumb/v7-m/nofp\libc_nano.a(lib_a-isattyr.o)
 .debug_frame   0x00008a54       0x20 c:/vsarm/armcc/10 2021.10/bin/../lib/gcc/arm-none-eabi/10.3.1/../../../../arm-none-eabi/lib/thumb/v7-m/nofp\libc_nano.a(lib_a-nano-msizer.o)
 .debug_frame   0x00008a74       0x20 c:/vsarm/armcc/10 2021.10/bin/../lib/gcc/arm-none-eabi/10.3.1/../../../../arm-none-eabi/lib/thumb/v7-m/nofp\libnosys.a(close.o)
 .debug_frame   0x00008a94       0x20 c:/vsarm/armcc/10 2021.10/bin/../lib/gcc/arm-none-eabi/10.3.1/../../../../arm-none-eabi/lib/thumb/v7-m/nofp\libnosys.a(fstat.o)
 .debug_frame   0x00008ab4       0x20 c:/vsarm/armcc/10 2021.10/bin/../lib/gcc/arm-none-eabi/10.3.1/../../../../arm-none-eabi/lib/thumb/v7-m/nofp\libnosys.a(isatty.o)
 .debug_frame   0x00008ad4       0x20 c:/vsarm/armcc/10 2021.10/bin/../lib/gcc/arm-none-eabi/10.3.1/../../../../arm-none-eabi/lib/thumb/v7-m/nofp\libnosys.a(lseek.o)
 .debug_frame   0x00008af4       0x20 c:/vsarm/armcc/10 2021.10/bin/../lib/gcc/arm-none-eabi/10.3.1/../../../../arm-none-eabi/lib/thumb/v7-m/nofp\libnosys.a(read.o)
 .debug_frame   0x00008b14       0x20 c:/vsarm/armcc/10 2021.10/bin/../lib/gcc/arm-none-eabi/10.3.1/../../../../arm-none-eabi/lib/thumb/v7-m/nofp\libnosys.a(sbrk.o)
 .debug_frame   0x00008b34       0x20 c:/vsarm/armcc/10 2021.10/bin/../lib/gcc/arm-none-eabi/10.3.1/../../../../arm-none-eabi/lib/thumb/v7-m/nofp\libnosys.a(write.o)
 .debug_frame   0x00008b54       0x2c c:/vsarm/armcc/10 2021.10/bin/../lib/gcc/arm-none-eabi/10.3.1/thumb/v7-m/nofp\libgcc.a(_aeabi_uldivmod.o)
 .debug_frame   0x00008b80       0x34 c:/vsarm/armcc/10 2021.10/bin/../lib/gcc/arm-none-eabi/10.3.1/thumb/v7-m/nofp\libgcc.a(_udivmoddi4.o)

.stab           0x00000000       0x9c
 .stab          0x00000000       0x24 c:/vsarm/armcc/10 2021.10/bin/../lib/gcc/arm-none-eabi/10.3.1/../../../../arm-none-eabi/lib/thumb/v7-m/nofp\libnosys.a(close.o)
 .stab          0x00000024       0x18 c:/vsarm/armcc/10 2021.10/bin/../lib/gcc/arm-none-eabi/10.3.1/../../../../arm-none-eabi/lib/thumb/v7-m/nofp\libnosys.a(fstat.o)
                                 0x24 (size before relaxing)
 .stab          0x0000003c       0x18 c:/vsarm/armcc/10 2021.10/bin/../lib/gcc/arm-none-eabi/10.3.1/../../../../arm-none-eabi/lib/thumb/v7-m/nofp\libnosys.a(isatty.o)
                                 0x24 (size before relaxing)
 .stab          0x00000054       0x18 c:/vsarm/armcc/10 2021.10/bin/../lib/gcc/arm-none-eabi/10.3.1/../../../../arm-none-eabi/lib/thumb/v7-m/nofp\libnosys.a(lseek.o)
                                 0x24 (size before relaxing)
 .stab          0x0000006c       0x18 c:/vsarm/armcc/10 2021.10/bin/../lib/gcc/arm-none-eabi/10.3.1/../../../../arm-none-eabi/lib/thumb/v7-m/nofp\libnosys.a(read.o)
                                 0x24 (size before relaxing)
 .stab          0x00000084       0x18 c:/vsarm/armcc/10 2021.10/bin/../lib/gcc/arm-none-eabi/10.3.1/../../../../arm-none-eabi/lib/thumb/v7-m/nofp\libnosys.a(write.o)
                                 0x24 (size before relaxing)

.stabstr        0x00000000      0x14d
 .stabstr       0x00000000      0x14d c:/vsarm/armcc/10 2021.10/bin/../lib/gcc/arm-none-eabi/10.3.1/../../../../arm-none-eabi/lib/thumb/v7-m/nofp\libnosys.a(close.o)

Cross Reference Table

Symbol                                            File
ADC_IRQHandler                                    build/startup_stm32f207xx.o
AHBPrescTable                                     build/system_stm32f2xx.o
                                                  build/stm32f2xx_hal_rcc.o
APBPrescTable                                     build/system_stm32f2xx.o
                                                  build/stm32f2xx_hal_rcc.o
BusFault_Handler                                  build/stm32f2xx_it.o
CAN1_RX0_IRQHandler                               build/startup_stm32f207xx.o
CAN1_RX1_IRQHandler                               build/startup_stm32f207xx.o
CAN1_SCE_IRQHandler                               build/startup_stm32f207xx.o
CAN1_TX_IRQHandler                                build/startup_stm32f207xx.o
CAN2_RX0_IRQHandler                               build/startup_stm32f207xx.o
CAN2_RX1_IRQHandler                               build/startup_stm32f207xx.o
CAN2_SCE_IRQHandler                               build/startup_stm32f207xx.o
CAN2_TX_IRQHandler                                build/startup_stm32f207xx.o
DCMI_IRQHandler                                   build/startup_stm32f207xx.o
DMA1_Stream0_IRQHandler                           build/startup_stm32f207xx.o
DMA1_Stream1_IRQHandler                           build/startup_stm32f207xx.o
DMA1_Stream2_IRQHandler                           build/startup_stm32f207xx.o
DMA1_Stream3_IRQHandler                           build/startup_stm32f207xx.o
DMA1_Stream4_IRQHandler                           build/startup_stm32f207xx.o
DMA1_Stream5_IRQHandler                           build/startup_stm32f207xx.o
DMA1_Stream6_IRQHandler                           build/startup_stm32f207xx.o
DMA1_Stream7_IRQHandler                           build/startup_stm32f207xx.o
DMA2_Stream0_IRQHandler                           build/startup_stm32f207xx.o
DMA2_Stream1_IRQHandler                           build/startup_stm32f207xx.o
DMA2_Stream2_IRQHandler                           build/startup_stm32f207xx.o
DMA2_Stream3_IRQHandler                           build/startup_stm32f207xx.o
DMA2_Stream4_IRQHandler                           build/startup_stm32f207xx.o
DMA2_Stream5_IRQHandler                           build/startup_stm32f207xx.o
DMA2_Stream6_IRQHandler                           build/startup_stm32f207xx.o
DMA2_Stream7_IRQHandler                           build/startup_stm32f207xx.o
DMARxDscrTab                                      build/ethernetif.o
DMATxDscrTab                                      build/ethernetif.o
DebugMon_Handler                                  build/stm32f2xx_it.o
Default_Handler                                   build/startup_stm32f207xx.o
ETH_IRQHandler                                    build/stm32f2xx_it.o
ETH_WKUP_IRQHandler                               build/startup_stm32f207xx.o
EXTI0_IRQHandler                                  build/startup_stm32f207xx.o
EXTI15_10_IRQHandler                              build/startup_stm32f207xx.o
EXTI1_IRQHandler                                  build/startup_stm32f207xx.o
EXTI2_IRQHandler                                  build/startup_stm32f207xx.o
EXTI3_IRQHandler                                  build/startup_stm32f207xx.o
EXTI4_IRQHandler                                  build/startup_stm32f207xx.o
EXTI9_5_IRQHandler                                build/startup_stm32f207xx.o
Error_Handler                                     build/main.o
FLASH_Erase_Sector                                build/stm32f2xx_hal_flash_ex.o
                                                  build/stm32f2xx_hal_flash.o
FLASH_FlushCaches                                 build/stm32f2xx_hal_flash_ex.o
                                                  build/stm32f2xx_hal_flash.o
FLASH_IRQHandler                                  build/startup_stm32f207xx.o
FLASH_WaitForLastOperation                        build/stm32f2xx_hal_flash.o
                                                  build/stm32f2xx_hal_flash_ex.o
FSMC_IRQHandler                                   build/startup_stm32f207xx.o
GATEWAY_ADDRESS                                   build/lwip.o
HAL_DBGMCU_DisableDBGSleepMode                    build/stm32f2xx_hal.o
HAL_DBGMCU_DisableDBGStandbyMode                  build/stm32f2xx_hal.o
HAL_DBGMCU_DisableDBGStopMode                     build/stm32f2xx_hal.o
HAL_DBGMCU_EnableDBGSleepMode                     build/stm32f2xx_hal.o
HAL_DBGMCU_EnableDBGStandbyMode                   build/stm32f2xx_hal.o
HAL_DBGMCU_EnableDBGStopMode                      build/stm32f2xx_hal.o
HAL_DMAEx_ChangeMemory                            build/stm32f2xx_hal_dma_ex.o
HAL_DMAEx_MultiBufferStart                        build/stm32f2xx_hal_dma_ex.o
HAL_DMAEx_MultiBufferStart_IT                     build/stm32f2xx_hal_dma_ex.o
HAL_DMA_Abort                                     build/stm32f2xx_hal_dma.o
                                                  build/stm32f2xx_hal_uart.o
HAL_DMA_Abort_IT                                  build/stm32f2xx_hal_dma.o
                                                  build/stm32f2xx_hal_uart.o
                                                  build/stm32f2xx_hal_tim_ex.o
                                                  build/stm32f2xx_hal_tim.o
HAL_DMA_DeInit                                    build/stm32f2xx_hal_dma.o
HAL_DMA_GetError                                  build/stm32f2xx_hal_dma.o
                                                  build/stm32f2xx_hal_uart.o
HAL_DMA_GetState                                  build/stm32f2xx_hal_dma.o
HAL_DMA_IRQHandler                                build/stm32f2xx_hal_dma.o
HAL_DMA_Init                                      build/stm32f2xx_hal_dma.o
HAL_DMA_PollForTransfer                           build/stm32f2xx_hal_dma.o
HAL_DMA_RegisterCallback                          build/stm32f2xx_hal_dma.o
HAL_DMA_Start                                     build/stm32f2xx_hal_dma.o
HAL_DMA_Start_IT                                  build/stm32f2xx_hal_dma.o
                                                  build/stm32f2xx_hal_uart.o
                                                  build/stm32f2xx_hal_tim_ex.o
                                                  build/stm32f2xx_hal_tim.o
HAL_DMA_UnRegisterCallback                        build/stm32f2xx_hal_dma.o
HAL_DeInit                                        build/stm32f2xx_hal.o
HAL_Delay                                         build/stm32f2xx_hal.o
                                                  build/stm32f2xx_hal_eth.o
HAL_DisableCompensationCell                       build/stm32f2xx_hal.o
HAL_ETH_ConfigDMA                                 build/stm32f2xx_hal_eth.o
HAL_ETH_ConfigMAC                                 build/stm32f2xx_hal_eth.o
                                                  build/ethernetif.o
HAL_ETH_DMARxDescListInit                         build/stm32f2xx_hal_eth.o
                                                  build/ethernetif.o
HAL_ETH_DMATxDescListInit                         build/stm32f2xx_hal_eth.o
                                                  build/ethernetif.o
HAL_ETH_DeInit                                    build/stm32f2xx_hal_eth.o
HAL_ETH_ErrorCallback                             build/stm32f2xx_hal_eth.o
HAL_ETH_GetReceivedFrame                          build/stm32f2xx_hal_eth.o
HAL_ETH_GetReceivedFrame_IT                       build/stm32f2xx_hal_eth.o
                                                  build/ethernetif.o
HAL_ETH_GetState                                  build/stm32f2xx_hal_eth.o
HAL_ETH_IRQHandler                                build/stm32f2xx_hal_eth.o
                                                  build/stm32f2xx_it.o
HAL_ETH_Init                                      build/stm32f2xx_hal_eth.o
                                                  build/ethernetif.o
HAL_ETH_MspDeInit                                 build/ethernetif.o
HAL_ETH_MspInit                                   build/ethernetif.o
HAL_ETH_ReadPHYRegister                           build/stm32f2xx_hal_eth.o
                                                  build/ethernetif.o
HAL_ETH_RxCpltCallback                            build/ethernetif.o
HAL_ETH_Start                                     build/stm32f2xx_hal_eth.o
                                                  build/ethernetif.o
HAL_ETH_Stop                                      build/stm32f2xx_hal_eth.o
                                                  build/ethernetif.o
HAL_ETH_TransmitFrame                             build/stm32f2xx_hal_eth.o
                                                  build/ethernetif.o
HAL_ETH_TxCpltCallback                            build/stm32f2xx_hal_eth.o
HAL_ETH_WritePHYRegister                          build/stm32f2xx_hal_eth.o
                                                  build/ethernetif.o
HAL_EXTI_ClearConfigLine                          build/stm32f2xx_hal_exti.o
HAL_EXTI_ClearPending                             build/stm32f2xx_hal_exti.o
HAL_EXTI_GenerateSWI                              build/stm32f2xx_hal_exti.o
HAL_EXTI_GetConfigLine                            build/stm32f2xx_hal_exti.o
HAL_EXTI_GetHandle                                build/stm32f2xx_hal_exti.o
HAL_EXTI_GetPending                               build/stm32f2xx_hal_exti.o
HAL_EXTI_IRQHandler                               build/stm32f2xx_hal_exti.o
HAL_EXTI_RegisterCallback                         build/stm32f2xx_hal_exti.o
HAL_EXTI_SetConfigLine                            build/stm32f2xx_hal_exti.o
HAL_EnableCompensationCell                        build/stm32f2xx_hal.o
HAL_FLASHEx_Erase                                 build/stm32f2xx_hal_flash_ex.o
HAL_FLASHEx_Erase_IT                              build/stm32f2xx_hal_flash_ex.o
HAL_FLASHEx_OBGetConfig                           build/stm32f2xx_hal_flash_ex.o
HAL_FLASHEx_OBProgram                             build/stm32f2xx_hal_flash_ex.o
HAL_FLASH_EndOfOperationCallback                  build/stm32f2xx_hal_flash.o
HAL_FLASH_GetError                                build/stm32f2xx_hal_flash.o
HAL_FLASH_IRQHandler                              build/stm32f2xx_hal_flash.o
HAL_FLASH_Lock                                    build/stm32f2xx_hal_flash.o
HAL_FLASH_OB_Launch                               build/stm32f2xx_hal_flash.o
HAL_FLASH_OB_Lock                                 build/stm32f2xx_hal_flash.o
HAL_FLASH_OB_Unlock                               build/stm32f2xx_hal_flash.o
HAL_FLASH_OperationErrorCallback                  build/stm32f2xx_hal_flash.o
HAL_FLASH_Program                                 build/stm32f2xx_hal_flash.o
HAL_FLASH_Program_IT                              build/stm32f2xx_hal_flash.o
HAL_FLASH_Unlock                                  build/stm32f2xx_hal_flash.o
HAL_GPIO_DeInit                                   build/stm32f2xx_hal_gpio.o
                                                  build/ethernetif.o
                                                  build/stm32f2xx_hal_msp.o
HAL_GPIO_EXTI_Callback                            build/stm32f2xx_hal_gpio.o
HAL_GPIO_EXTI_IRQHandler                          build/stm32f2xx_hal_gpio.o
HAL_GPIO_Init                                     build/stm32f2xx_hal_gpio.o
                                                  build/stm32f2xx_hal_rcc.o
                                                  build/ethernetif.o
                                                  build/stm32f2xx_hal_msp.o
                                                  build/main.o
HAL_GPIO_LockPin                                  build/stm32f2xx_hal_gpio.o
HAL_GPIO_ReadPin                                  build/stm32f2xx_hal_gpio.o
HAL_GPIO_TogglePin                                build/stm32f2xx_hal_gpio.o
HAL_GPIO_WritePin                                 build/stm32f2xx_hal_gpio.o
                                                  build/main.o
HAL_GetDEVID                                      build/stm32f2xx_hal.o
HAL_GetHalVersion                                 build/stm32f2xx_hal.o
HAL_GetREVID                                      build/stm32f2xx_hal.o
HAL_GetTick                                       build/stm32f2xx_hal.o
                                                  build/stm32f2xx_hal_uart.o
                                                  build/stm32f2xx_hal_dma.o
                                                  build/stm32f2xx_hal_pwr_ex.o
                                                  build/stm32f2xx_hal_flash.o
                                                  build/stm32f2xx_hal_rcc_ex.o
                                                  build/stm32f2xx_hal_rcc.o
                                                  build/stm32f2xx_hal_eth.o
                                                  build/ethernetif.o
HAL_GetTickFreq                                   build/stm32f2xx_hal.o
HAL_GetTickPrio                                   build/stm32f2xx_hal.o
HAL_GetUIDw0                                      build/stm32f2xx_hal.o
HAL_GetUIDw1                                      build/stm32f2xx_hal.o
HAL_GetUIDw2                                      build/stm32f2xx_hal.o
HAL_HalfDuplex_EnableReceiver                     build/stm32f2xx_hal_uart.o
HAL_HalfDuplex_EnableTransmitter                  build/stm32f2xx_hal_uart.o
HAL_HalfDuplex_Init                               build/stm32f2xx_hal_uart.o
HAL_IncTick                                       build/stm32f2xx_hal.o
                                                  build/main.o
HAL_Init                                          build/stm32f2xx_hal.o
                                                  build/main.o
HAL_InitTick                                      build/stm32f2xx_hal_timebase_tim.o
                                                  build/stm32f2xx_hal_rcc.o
HAL_LIN_Init                                      build/stm32f2xx_hal_uart.o
HAL_LIN_SendBreak                                 build/stm32f2xx_hal_uart.o
HAL_MPU_ConfigRegion                              build/stm32f2xx_hal_cortex.o
HAL_MPU_Disable                                   build/stm32f2xx_hal_cortex.o
HAL_MPU_Enable                                    build/stm32f2xx_hal_cortex.o
HAL_MspDeInit                                     build/stm32f2xx_hal.o
HAL_MspInit                                       build/stm32f2xx_hal_msp.o
HAL_MultiProcessor_EnterMuteMode                  build/stm32f2xx_hal_uart.o
HAL_MultiProcessor_ExitMuteMode                   build/stm32f2xx_hal_uart.o
HAL_MultiProcessor_Init                           build/stm32f2xx_hal_uart.o
HAL_NVIC_ClearPendingIRQ                          build/stm32f2xx_hal_cortex.o
HAL_NVIC_DisableIRQ                               build/stm32f2xx_hal_cortex.o
                                                  build/ethernetif.o
                                                  build/stm32f2xx_hal_msp.o
HAL_NVIC_EnableIRQ                                build/stm32f2xx_hal_cortex.o
                                                  build/ethernetif.o
                                                  build/stm32f2xx_hal_timebase_tim.o
                                                  build/stm32f2xx_hal_msp.o
HAL_NVIC_GetActive                                build/stm32f2xx_hal_cortex.o
HAL_NVIC_GetPendingIRQ                            build/stm32f2xx_hal_cortex.o
HAL_NVIC_GetPriority                              build/stm32f2xx_hal_cortex.o
HAL_NVIC_GetPriorityGrouping                      build/stm32f2xx_hal_cortex.o
HAL_NVIC_SetPendingIRQ                            build/stm32f2xx_hal_cortex.o
HAL_NVIC_SetPriority                              build/stm32f2xx_hal_cortex.o
                                                  build/stm32f2xx_hal.o
                                                  build/ethernetif.o
                                                  build/stm32f2xx_hal_timebase_tim.o
                                                  build/stm32f2xx_hal_msp.o
HAL_NVIC_SetPriorityGrouping                      build/stm32f2xx_hal_cortex.o
                                                  build/stm32f2xx_hal.o
HAL_NVIC_SystemReset                              build/stm32f2xx_hal_cortex.o
HAL_PWREx_DisableBkUpReg                          build/stm32f2xx_hal_pwr_ex.o
HAL_PWREx_DisableFlashPowerDown                   build/stm32f2xx_hal_pwr_ex.o
HAL_PWREx_EnableBkUpReg                           build/stm32f2xx_hal_pwr_ex.o
HAL_PWREx_EnableFlashPowerDown                    build/stm32f2xx_hal_pwr_ex.o
HAL_PWR_ConfigPVD                                 build/stm32f2xx_hal_pwr.o
HAL_PWR_DeInit                                    build/stm32f2xx_hal_pwr.o
HAL_PWR_DisableBkUpAccess                         build/stm32f2xx_hal_pwr.o
HAL_PWR_DisablePVD                                build/stm32f2xx_hal_pwr.o
HAL_PWR_DisableSEVOnPend                          build/stm32f2xx_hal_pwr.o
HAL_PWR_DisableSleepOnExit                        build/stm32f2xx_hal_pwr.o
HAL_PWR_DisableWakeUpPin                          build/stm32f2xx_hal_pwr.o
HAL_PWR_EnableBkUpAccess                          build/stm32f2xx_hal_pwr.o
HAL_PWR_EnablePVD                                 build/stm32f2xx_hal_pwr.o
HAL_PWR_EnableSEVOnPend                           build/stm32f2xx_hal_pwr.o
HAL_PWR_EnableSleepOnExit                         build/stm32f2xx_hal_pwr.o
HAL_PWR_EnableWakeUpPin                           build/stm32f2xx_hal_pwr.o
HAL_PWR_EnterSLEEPMode                            build/stm32f2xx_hal_pwr.o
HAL_PWR_EnterSTANDBYMode                          build/stm32f2xx_hal_pwr.o
HAL_PWR_EnterSTOPMode                             build/stm32f2xx_hal_pwr.o
HAL_PWR_PVDCallback                               build/stm32f2xx_hal_pwr.o
HAL_PWR_PVD_IRQHandler                            build/stm32f2xx_hal_pwr.o
HAL_RCCEx_DisablePLLI2S                           build/stm32f2xx_hal_rcc_ex.o
HAL_RCCEx_EnablePLLI2S                            build/stm32f2xx_hal_rcc_ex.o
HAL_RCCEx_GetPeriphCLKConfig                      build/stm32f2xx_hal_rcc_ex.o
HAL_RCCEx_PeriphCLKConfig                         build/stm32f2xx_hal_rcc_ex.o
HAL_RCC_CSSCallback                               build/stm32f2xx_hal_rcc.o
HAL_RCC_ClockConfig                               build/stm32f2xx_hal_rcc.o
                                                  build/main.o
HAL_RCC_DeInit                                    build/stm32f2xx_hal_rcc.o
HAL_RCC_DisableCSS                                build/stm32f2xx_hal_rcc.o
HAL_RCC_EnableCSS                                 build/stm32f2xx_hal_rcc.o
HAL_RCC_GetClockConfig                            build/stm32f2xx_hal_rcc.o
                                                  build/stm32f2xx_hal_timebase_tim.o
HAL_RCC_GetHCLKFreq                               build/stm32f2xx_hal_rcc.o
                                                  build/stm32f2xx_hal_eth.o
HAL_RCC_GetOscConfig                              build/stm32f2xx_hal_rcc.o
HAL_RCC_GetPCLK1Freq                              build/stm32f2xx_hal_rcc.o
                                                  build/stm32f2xx_hal_uart.o
                                                  build/stm32f2xx_hal_timebase_tim.o
HAL_RCC_GetPCLK2Freq                              build/stm32f2xx_hal_rcc.o
                                                  build/stm32f2xx_hal_uart.o
HAL_RCC_GetSysClockFreq                           build/stm32f2xx_hal_rcc.o
HAL_RCC_MCOConfig                                 build/stm32f2xx_hal_rcc.o
HAL_RCC_NMI_IRQHandler                            build/stm32f2xx_hal_rcc.o
HAL_RCC_OscConfig                                 build/stm32f2xx_hal_rcc.o
                                                  build/main.o
HAL_ResumeTick                                    build/stm32f2xx_hal_timebase_tim.o
HAL_SYSTICK_CLKSourceConfig                       build/stm32f2xx_hal_cortex.o
HAL_SYSTICK_Callback                              build/stm32f2xx_hal_cortex.o
HAL_SYSTICK_Config                                build/stm32f2xx_hal_cortex.o
                                                  build/stm32f2xx_hal.o
HAL_SYSTICK_IRQHandler                            build/stm32f2xx_hal_cortex.o
HAL_SetTickFreq                                   build/stm32f2xx_hal.o
HAL_SuspendTick                                   build/stm32f2xx_hal_timebase_tim.o
HAL_TIMEx_BreakCallback                           build/stm32f2xx_hal_tim_ex.o
                                                  build/stm32f2xx_hal_tim.o
HAL_TIMEx_CommutCallback                          build/stm32f2xx_hal_tim_ex.o
                                                  build/stm32f2xx_hal_tim.o
HAL_TIMEx_CommutHalfCpltCallback                  build/stm32f2xx_hal_tim_ex.o
HAL_TIMEx_ConfigBreakDeadTime                     build/stm32f2xx_hal_tim_ex.o
HAL_TIMEx_ConfigCommutEvent                       build/stm32f2xx_hal_tim_ex.o
HAL_TIMEx_ConfigCommutEvent_DMA                   build/stm32f2xx_hal_tim_ex.o
HAL_TIMEx_ConfigCommutEvent_IT                    build/stm32f2xx_hal_tim_ex.o
HAL_TIMEx_GetChannelNState                        build/stm32f2xx_hal_tim_ex.o
HAL_TIMEx_HallSensor_DeInit                       build/stm32f2xx_hal_tim_ex.o
HAL_TIMEx_HallSensor_GetState                     build/stm32f2xx_hal_tim_ex.o
HAL_TIMEx_HallSensor_Init                         build/stm32f2xx_hal_tim_ex.o
HAL_TIMEx_HallSensor_MspDeInit                    build/stm32f2xx_hal_tim_ex.o
HAL_TIMEx_HallSensor_MspInit                      build/stm32f2xx_hal_tim_ex.o
HAL_TIMEx_HallSensor_Start                        build/stm32f2xx_hal_tim_ex.o
HAL_TIMEx_HallSensor_Start_DMA                    build/stm32f2xx_hal_tim_ex.o
HAL_TIMEx_HallSensor_Start_IT                     build/stm32f2xx_hal_tim_ex.o
HAL_TIMEx_HallSensor_Stop                         build/stm32f2xx_hal_tim_ex.o
HAL_TIMEx_HallSensor_Stop_DMA                     build/stm32f2xx_hal_tim_ex.o
HAL_TIMEx_HallSensor_Stop_IT                      build/stm32f2xx_hal_tim_ex.o
HAL_TIMEx_MasterConfigSynchronization             build/stm32f2xx_hal_tim_ex.o
HAL_TIMEx_OCN_Start                               build/stm32f2xx_hal_tim_ex.o
HAL_TIMEx_OCN_Start_DMA                           build/stm32f2xx_hal_tim_ex.o
HAL_TIMEx_OCN_Start_IT                            build/stm32f2xx_hal_tim_ex.o
HAL_TIMEx_OCN_Stop                                build/stm32f2xx_hal_tim_ex.o
HAL_TIMEx_OCN_Stop_DMA                            build/stm32f2xx_hal_tim_ex.o
HAL_TIMEx_OCN_Stop_IT                             build/stm32f2xx_hal_tim_ex.o
HAL_TIMEx_OnePulseN_Start                         build/stm32f2xx_hal_tim_ex.o
HAL_TIMEx_OnePulseN_Start_IT                      build/stm32f2xx_hal_tim_ex.o
HAL_TIMEx_OnePulseN_Stop                          build/stm32f2xx_hal_tim_ex.o
HAL_TIMEx_OnePulseN_Stop_IT                       build/stm32f2xx_hal_tim_ex.o
HAL_TIMEx_PWMN_Start                              build/stm32f2xx_hal_tim_ex.o
HAL_TIMEx_PWMN_Start_DMA                          build/stm32f2xx_hal_tim_ex.o
HAL_TIMEx_PWMN_Start_IT                           build/stm32f2xx_hal_tim_ex.o
HAL_TIMEx_PWMN_Stop                               build/stm32f2xx_hal_tim_ex.o
HAL_TIMEx_PWMN_Stop_DMA                           build/stm32f2xx_hal_tim_ex.o
HAL_TIMEx_PWMN_Stop_IT                            build/stm32f2xx_hal_tim_ex.o
HAL_TIMEx_RemapConfig                             build/stm32f2xx_hal_tim_ex.o
HAL_TIM_Base_DeInit                               build/stm32f2xx_hal_tim.o
HAL_TIM_Base_GetState                             build/stm32f2xx_hal_tim.o
HAL_TIM_Base_Init                                 build/stm32f2xx_hal_tim.o
                                                  build/stm32f2xx_hal_timebase_tim.o
HAL_TIM_Base_MspDeInit                            build/stm32f2xx_hal_tim.o
HAL_TIM_Base_MspInit                              build/stm32f2xx_hal_tim.o
HAL_TIM_Base_Start                                build/stm32f2xx_hal_tim.o
HAL_TIM_Base_Start_DMA                            build/stm32f2xx_hal_tim.o
HAL_TIM_Base_Start_IT                             build/stm32f2xx_hal_tim.o
                                                  build/stm32f2xx_hal_timebase_tim.o
HAL_TIM_Base_Stop                                 build/stm32f2xx_hal_tim.o
HAL_TIM_Base_Stop_DMA                             build/stm32f2xx_hal_tim.o
HAL_TIM_Base_Stop_IT                              build/stm32f2xx_hal_tim.o
HAL_TIM_ConfigClockSource                         build/stm32f2xx_hal_tim.o
HAL_TIM_ConfigOCrefClear                          build/stm32f2xx_hal_tim.o
HAL_TIM_ConfigTI1Input                            build/stm32f2xx_hal_tim.o
HAL_TIM_DMABurstState                             build/stm32f2xx_hal_tim.o
HAL_TIM_DMABurst_MultiReadStart                   build/stm32f2xx_hal_tim.o
HAL_TIM_DMABurst_MultiWriteStart                  build/stm32f2xx_hal_tim.o
HAL_TIM_DMABurst_ReadStart                        build/stm32f2xx_hal_tim.o
HAL_TIM_DMABurst_ReadStop                         build/stm32f2xx_hal_tim.o
HAL_TIM_DMABurst_WriteStart                       build/stm32f2xx_hal_tim.o
HAL_TIM_DMABurst_WriteStop                        build/stm32f2xx_hal_tim.o
HAL_TIM_Encoder_DeInit                            build/stm32f2xx_hal_tim.o
HAL_TIM_Encoder_GetState                          build/stm32f2xx_hal_tim.o
HAL_TIM_Encoder_Init                              build/stm32f2xx_hal_tim.o
HAL_TIM_Encoder_MspDeInit                         build/stm32f2xx_hal_tim.o
HAL_TIM_Encoder_MspInit                           build/stm32f2xx_hal_tim.o
HAL_TIM_Encoder_Start                             build/stm32f2xx_hal_tim.o
HAL_TIM_Encoder_Start_DMA                         build/stm32f2xx_hal_tim.o
HAL_TIM_Encoder_Start_IT                          build/stm32f2xx_hal_tim.o
HAL_TIM_Encoder_Stop                              build/stm32f2xx_hal_tim.o
HAL_TIM_Encoder_Stop_DMA                          build/stm32f2xx_hal_tim.o
HAL_TIM_Encoder_Stop_IT                           build/stm32f2xx_hal_tim.o
HAL_TIM_ErrorCallback                             build/stm32f2xx_hal_tim.o
                                                  build/stm32f2xx_hal_tim_ex.o
HAL_TIM_GenerateEvent                             build/stm32f2xx_hal_tim.o
HAL_TIM_GetActiveChannel                          build/stm32f2xx_hal_tim.o
HAL_TIM_GetChannelState                           build/stm32f2xx_hal_tim.o
HAL_TIM_IC_CaptureCallback                        build/stm32f2xx_hal_tim.o
HAL_TIM_IC_CaptureHalfCpltCallback                build/stm32f2xx_hal_tim.o
HAL_TIM_IC_ConfigChannel                          build/stm32f2xx_hal_tim.o
HAL_TIM_IC_DeInit                                 build/stm32f2xx_hal_tim.o
HAL_TIM_IC_GetState                               build/stm32f2xx_hal_tim.o
HAL_TIM_IC_Init                                   build/stm32f2xx_hal_tim.o
HAL_TIM_IC_MspDeInit                              build/stm32f2xx_hal_tim.o
HAL_TIM_IC_MspInit                                build/stm32f2xx_hal_tim.o
HAL_TIM_IC_Start                                  build/stm32f2xx_hal_tim.o
HAL_TIM_IC_Start_DMA                              build/stm32f2xx_hal_tim.o
HAL_TIM_IC_Start_IT                               build/stm32f2xx_hal_tim.o
HAL_TIM_IC_Stop                                   build/stm32f2xx_hal_tim.o
HAL_TIM_IC_Stop_DMA                               build/stm32f2xx_hal_tim.o
HAL_TIM_IC_Stop_IT                                build/stm32f2xx_hal_tim.o
HAL_TIM_IRQHandler                                build/stm32f2xx_hal_tim.o
                                                  build/stm32f2xx_it.o
HAL_TIM_OC_ConfigChannel                          build/stm32f2xx_hal_tim.o
HAL_TIM_OC_DeInit                                 build/stm32f2xx_hal_tim.o
HAL_TIM_OC_DelayElapsedCallback                   build/stm32f2xx_hal_tim.o
HAL_TIM_OC_GetState                               build/stm32f2xx_hal_tim.o
HAL_TIM_OC_Init                                   build/stm32f2xx_hal_tim.o
HAL_TIM_OC_MspDeInit                              build/stm32f2xx_hal_tim.o
HAL_TIM_OC_MspInit                                build/stm32f2xx_hal_tim.o
HAL_TIM_OC_Start                                  build/stm32f2xx_hal_tim.o
HAL_TIM_OC_Start_DMA                              build/stm32f2xx_hal_tim.o
HAL_TIM_OC_Start_IT                               build/stm32f2xx_hal_tim.o
HAL_TIM_OC_Stop                                   build/stm32f2xx_hal_tim.o
HAL_TIM_OC_Stop_DMA                               build/stm32f2xx_hal_tim.o
HAL_TIM_OC_Stop_IT                                build/stm32f2xx_hal_tim.o
HAL_TIM_OnePulse_ConfigChannel                    build/stm32f2xx_hal_tim.o
HAL_TIM_OnePulse_DeInit                           build/stm32f2xx_hal_tim.o
HAL_TIM_OnePulse_GetState                         build/stm32f2xx_hal_tim.o
HAL_TIM_OnePulse_Init                             build/stm32f2xx_hal_tim.o
HAL_TIM_OnePulse_MspDeInit                        build/stm32f2xx_hal_tim.o
HAL_TIM_OnePulse_MspInit                          build/stm32f2xx_hal_tim.o
HAL_TIM_OnePulse_Start                            build/stm32f2xx_hal_tim.o
HAL_TIM_OnePulse_Start_IT                         build/stm32f2xx_hal_tim.o
HAL_TIM_OnePulse_Stop                             build/stm32f2xx_hal_tim.o
HAL_TIM_OnePulse_Stop_IT                          build/stm32f2xx_hal_tim.o
HAL_TIM_PWM_ConfigChannel                         build/stm32f2xx_hal_tim.o
HAL_TIM_PWM_DeInit                                build/stm32f2xx_hal_tim.o
HAL_TIM_PWM_GetState                              build/stm32f2xx_hal_tim.o
HAL_TIM_PWM_Init                                  build/stm32f2xx_hal_tim.o
HAL_TIM_PWM_MspDeInit                             build/stm32f2xx_hal_tim.o
HAL_TIM_PWM_MspInit                               build/stm32f2xx_hal_tim.o
HAL_TIM_PWM_PulseFinishedCallback                 build/stm32f2xx_hal_tim.o
                                                  build/stm32f2xx_hal_tim_ex.o
HAL_TIM_PWM_PulseFinishedHalfCpltCallback         build/stm32f2xx_hal_tim.o
HAL_TIM_PWM_Start                                 build/stm32f2xx_hal_tim.o
HAL_TIM_PWM_Start_DMA                             build/stm32f2xx_hal_tim.o
HAL_TIM_PWM_Start_IT                              build/stm32f2xx_hal_tim.o
HAL_TIM_PWM_Stop                                  build/stm32f2xx_hal_tim.o
HAL_TIM_PWM_Stop_DMA                              build/stm32f2xx_hal_tim.o
HAL_TIM_PWM_Stop_IT                               build/stm32f2xx_hal_tim.o
HAL_TIM_PeriodElapsedCallback                     build/main.o
HAL_TIM_PeriodElapsedHalfCpltCallback             build/stm32f2xx_hal_tim.o
HAL_TIM_ReadCapturedValue                         build/stm32f2xx_hal_tim.o
HAL_TIM_SlaveConfigSynchro                        build/stm32f2xx_hal_tim.o
HAL_TIM_SlaveConfigSynchro_IT                     build/stm32f2xx_hal_tim.o
HAL_TIM_TriggerCallback                           build/stm32f2xx_hal_tim.o
HAL_TIM_TriggerHalfCpltCallback                   build/stm32f2xx_hal_tim.o
HAL_UARTEx_ReceiveToIdle                          build/stm32f2xx_hal_uart.o
HAL_UARTEx_ReceiveToIdle_DMA                      build/stm32f2xx_hal_uart.o
HAL_UARTEx_ReceiveToIdle_IT                       build/stm32f2xx_hal_uart.o
HAL_UARTEx_RxEventCallback                        build/stm32f2xx_hal_uart.o
HAL_UART_Abort                                    build/stm32f2xx_hal_uart.o
HAL_UART_AbortCpltCallback                        build/stm32f2xx_hal_uart.o
HAL_UART_AbortReceive                             build/stm32f2xx_hal_uart.o
HAL_UART_AbortReceiveCpltCallback                 build/stm32f2xx_hal_uart.o
HAL_UART_AbortReceive_IT                          build/stm32f2xx_hal_uart.o
HAL_UART_AbortTransmit                            build/stm32f2xx_hal_uart.o
HAL_UART_AbortTransmitCpltCallback                build/stm32f2xx_hal_uart.o
HAL_UART_AbortTransmit_IT                         build/stm32f2xx_hal_uart.o
HAL_UART_Abort_IT                                 build/stm32f2xx_hal_uart.o
HAL_UART_DMAPause                                 build/stm32f2xx_hal_uart.o
HAL_UART_DMAResume                                build/stm32f2xx_hal_uart.o
HAL_UART_DMAStop                                  build/stm32f2xx_hal_uart.o
HAL_UART_DeInit                                   build/stm32f2xx_hal_uart.o
HAL_UART_ErrorCallback                            build/stm32f2xx_hal_uart.o
HAL_UART_GetError                                 build/stm32f2xx_hal_uart.o
HAL_UART_GetState                                 build/stm32f2xx_hal_uart.o
HAL_UART_IRQHandler                               build/stm32f2xx_hal_uart.o
                                                  build/stm32f2xx_it.o
HAL_UART_Init                                     build/stm32f2xx_hal_uart.o
                                                  build/main.o
HAL_UART_MspDeInit                                build/stm32f2xx_hal_msp.o
HAL_UART_MspInit                                  build/stm32f2xx_hal_msp.o
HAL_UART_Receive                                  build/stm32f2xx_hal_uart.o
HAL_UART_Receive_DMA                              build/stm32f2xx_hal_uart.o
HAL_UART_Receive_IT                               build/stm32f2xx_hal_uart.o
                                                  build/sio.o
                                                  build/main.o
HAL_UART_RxCpltCallback                           build/sio.o
HAL_UART_RxHalfCpltCallback                       build/stm32f2xx_hal_uart.o
HAL_UART_Transmit                                 build/stm32f2xx_hal_uart.o
                                                  build/sio.o
                                                  build/main.o
HAL_UART_Transmit_DMA                             build/stm32f2xx_hal_uart.o
HAL_UART_Transmit_IT                              build/stm32f2xx_hal_uart.o
HAL_UART_TxCpltCallback                           build/stm32f2xx_hal_uart.o
HAL_UART_TxHalfCpltCallback                       build/stm32f2xx_hal_uart.o
HASH_RNG_IRQHandler                               build/startup_stm32f207xx.o
HardFault_Handler                                 build/stm32f2xx_it.o
I2C1_ER_IRQHandler                                build/startup_stm32f207xx.o
I2C1_EV_IRQHandler                                build/startup_stm32f207xx.o
I2C2_ER_IRQHandler                                build/startup_stm32f207xx.o
I2C2_EV_IRQHandler                                build/startup_stm32f207xx.o
I2C3_ER_IRQHandler                                build/startup_stm32f207xx.o
I2C3_EV_IRQHandler                                build/startup_stm32f207xx.o
IP_ADDRESS                                        build/lwip.o
MX_LWIP_Init                                      build/lwip.o
                                                  build/main.o
MemManage_Handler                                 build/stm32f2xx_it.o
NETMASK_ADDRESS                                   build/lwip.o
NMI_Handler                                       build/stm32f2xx_it.o
Netif_LinkSemaphore                               build/lwip.o
OTG_FS_IRQHandler                                 build/startup_stm32f207xx.o
OTG_FS_WKUP_IRQHandler                            build/startup_stm32f207xx.o
OTG_HS_EP1_IN_IRQHandler                          build/startup_stm32f207xx.o
OTG_HS_EP1_OUT_IRQHandler                         build/startup_stm32f207xx.o
OTG_HS_IRQHandler                                 build/startup_stm32f207xx.o
OTG_HS_WKUP_IRQHandler                            build/startup_stm32f207xx.o
PVD_IRQHandler                                    build/startup_stm32f207xx.o
PendSV_Handler                                    build/port.o
RCC_IRQHandler                                    build/startup_stm32f207xx.o
RTC_Alarm_IRQHandler                              build/startup_stm32f207xx.o
RTC_WKUP_IRQHandler                               build/startup_stm32f207xx.o
Reset_Handler                                     build/startup_stm32f207xx.o
Rx_Buff                                           build/ethernetif.o
SDIO_IRQHandler                                   build/startup_stm32f207xx.o
SPI1_IRQHandler                                   build/startup_stm32f207xx.o
SPI2_IRQHandler                                   build/startup_stm32f207xx.o
SPI3_IRQHandler                                   build/startup_stm32f207xx.o
SVC_Handler                                       build/port.o
StartDefaultTask                                  build/main.o
SysTick_Handler                                   build/port.o
SystemClock_Config                                build/main.o
SystemCoreClock                                   build/system_stm32f2xx.o
                                                  build/port.o
                                                  build/cmsis_os2.o
                                                  build/stm32f2xx_hal_dma.o
                                                  build/stm32f2xx_hal_rcc.o
                                                  build/stm32f2xx_hal.o
                                                  build/stm32f2xx_hal_eth.o
SystemCoreClockUpdate                             build/system_stm32f2xx.o
SystemInit                                        build/system_stm32f2xx.o
                                                  build/startup_stm32f207xx.o
TAMP_STAMP_IRQHandler                             build/startup_stm32f207xx.o
TIM1_BRK_TIM9_IRQHandler                          build/startup_stm32f207xx.o
TIM1_CC_IRQHandler                                build/startup_stm32f207xx.o
TIM1_TRG_COM_TIM11_IRQHandler                     build/startup_stm32f207xx.o
TIM1_UP_TIM10_IRQHandler                          build/startup_stm32f207xx.o
TIM2_IRQHandler                                   build/startup_stm32f207xx.o
TIM3_IRQHandler                                   build/startup_stm32f207xx.o
TIM4_IRQHandler                                   build/stm32f2xx_it.o
TIM5_IRQHandler                                   build/startup_stm32f207xx.o
TIM6_DAC_IRQHandler                               build/startup_stm32f207xx.o
TIM7_IRQHandler                                   build/startup_stm32f207xx.o
TIM8_BRK_TIM12_IRQHandler                         build/startup_stm32f207xx.o
TIM8_CC_IRQHandler                                build/startup_stm32f207xx.o
TIM8_TRG_COM_TIM14_IRQHandler                     build/startup_stm32f207xx.o
TIM8_UP_TIM13_IRQHandler                          build/startup_stm32f207xx.o
TIMEx_DMACommutationCplt                          build/stm32f2xx_hal_tim_ex.o
                                                  build/stm32f2xx_hal_tim.o
TIMEx_DMACommutationHalfCplt                      build/stm32f2xx_hal_tim_ex.o
                                                  build/stm32f2xx_hal_tim.o
TIM_Base_SetConfig                                build/stm32f2xx_hal_tim.o
                                                  build/stm32f2xx_hal_tim_ex.o
TIM_CCxChannelCmd                                 build/stm32f2xx_hal_tim.o
                                                  build/stm32f2xx_hal_tim_ex.o
TIM_DMACaptureCplt                                build/stm32f2xx_hal_tim.o
                                                  build/stm32f2xx_hal_tim_ex.o
TIM_DMACaptureHalfCplt                            build/stm32f2xx_hal_tim.o
                                                  build/stm32f2xx_hal_tim_ex.o
TIM_DMADelayPulseHalfCplt                         build/stm32f2xx_hal_tim.o
                                                  build/stm32f2xx_hal_tim_ex.o
TIM_DMAError                                      build/stm32f2xx_hal_tim.o
                                                  build/stm32f2xx_hal_tim_ex.o
TIM_ETR_SetConfig                                 build/stm32f2xx_hal_tim.o
TIM_OC2_SetConfig                                 build/stm32f2xx_hal_tim.o
                                                  build/stm32f2xx_hal_tim_ex.o
TIM_TI1_SetConfig                                 build/stm32f2xx_hal_tim.o
                                                  build/stm32f2xx_hal_tim_ex.o
Tx_Buff                                           build/ethernetif.o
UART4_IRQHandler                                  build/startup_stm32f207xx.o
UART5_IRQHandler                                  build/startup_stm32f207xx.o
UART_Start_Receive_DMA                            build/stm32f2xx_hal_uart.o
UART_Start_Receive_IT                             build/stm32f2xx_hal_uart.o
USART1_IRQHandler                                 build/startup_stm32f207xx.o
USART2_IRQHandler                                 build/stm32f2xx_it.o
USART3_IRQHandler                                 build/stm32f2xx_it.o
USART6_IRQHandler                                 build/startup_stm32f207xx.o
UsageFault_Handler                                build/stm32f2xx_it.o
WWDG_IRQHandler                                   build/startup_stm32f207xx.o
__aeabi_idiv0                                     c:/vsarm/armcc/10 2021.10/bin/../lib/gcc/arm-none-eabi/10.3.1/thumb/v7-m/nofp\libgcc.a(_dvmd_tls.o)
__aeabi_ldiv0                                     c:/vsarm/armcc/10 2021.10/bin/../lib/gcc/arm-none-eabi/10.3.1/thumb/v7-m/nofp\libgcc.a(_dvmd_tls.o)
                                                  c:/vsarm/armcc/10 2021.10/bin/../lib/gcc/arm-none-eabi/10.3.1/thumb/v7-m/nofp\libgcc.a(_aeabi_uldivmod.o)
__aeabi_uldivmod                                  c:/vsarm/armcc/10 2021.10/bin/../lib/gcc/arm-none-eabi/10.3.1/thumb/v7-m/nofp\libgcc.a(_aeabi_uldivmod.o)
                                                  build/stm32f2xx_hal_rcc.o
__bss_end__                                       c:/vsarm/armcc/10 2021.10/bin/../lib/gcc/arm-none-eabi/10.3.1/../../../../arm-none-eabi/lib/thumb/v7-m/nofp/crt0.o
__bss_start__                                     c:/vsarm/armcc/10 2021.10/bin/../lib/gcc/arm-none-eabi/10.3.1/../../../../arm-none-eabi/lib/thumb/v7-m/nofp/crt0.o
__call_exitprocs                                  c:/vsarm/armcc/10 2021.10/bin/../lib/gcc/arm-none-eabi/10.3.1/../../../../arm-none-eabi/lib/thumb/v7-m/nofp\libc_nano.a(lib_a-exit.o)
__deregister_frame_info                           c:/vsarm/armcc/10 2021.10/bin/../lib/gcc/arm-none-eabi/10.3.1/thumb/v7-m/nofp/crtbegin.o
__dso_handle                                      c:/vsarm/armcc/10 2021.10/bin/../lib/gcc/arm-none-eabi/10.3.1/thumb/v7-m/nofp/crtbegin.o
__fp_lock_all                                     c:/vsarm/armcc/10 2021.10/bin/../lib/gcc/arm-none-eabi/10.3.1/../../../../arm-none-eabi/lib/thumb/v7-m/nofp\libc_nano.a(lib_a-findfp.o)
__fp_unlock_all                                   c:/vsarm/armcc/10 2021.10/bin/../lib/gcc/arm-none-eabi/10.3.1/../../../../arm-none-eabi/lib/thumb/v7-m/nofp\libc_nano.a(lib_a-findfp.o)
__init_array_end                                  c:/vsarm/armcc/10 2021.10/bin/../lib/gcc/arm-none-eabi/10.3.1/../../../../arm-none-eabi/lib/thumb/v7-m/nofp\libc_nano.a(lib_a-init.o)
__init_array_start                                c:/vsarm/armcc/10 2021.10/bin/../lib/gcc/arm-none-eabi/10.3.1/../../../../arm-none-eabi/lib/thumb/v7-m/nofp\libc_nano.a(lib_a-init.o)
__libc_fini_array                                 c:/vsarm/armcc/10 2021.10/bin/../lib/gcc/arm-none-eabi/10.3.1/../../../../arm-none-eabi/lib/thumb/v7-m/nofp/crt0.o
__libc_init_array                                 c:/vsarm/armcc/10 2021.10/bin/../lib/gcc/arm-none-eabi/10.3.1/../../../../arm-none-eabi/lib/thumb/v7-m/nofp\libc_nano.a(lib_a-init.o)
                                                  build/startup_stm32f207xx.o
                                                  c:/vsarm/armcc/10 2021.10/bin/../lib/gcc/arm-none-eabi/10.3.1/../../../../arm-none-eabi/lib/thumb/v7-m/nofp/crt0.o
__lock___arc4random_mutex                         c:/vsarm/armcc/10 2021.10/bin/../lib/gcc/arm-none-eabi/10.3.1/../../../../arm-none-eabi/lib/thumb/v7-m/nofp\libc_nano.a(lib_a-lock.o)
__lock___at_quick_exit_mutex                      c:/vsarm/armcc/10 2021.10/bin/../lib/gcc/arm-none-eabi/10.3.1/../../../../arm-none-eabi/lib/thumb/v7-m/nofp\libc_nano.a(lib_a-lock.o)
__lock___atexit_recursive_mutex                   c:/vsarm/armcc/10 2021.10/bin/../lib/gcc/arm-none-eabi/10.3.1/../../../../arm-none-eabi/lib/thumb/v7-m/nofp\libc_nano.a(lib_a-lock.o)
__lock___dd_hash_mutex                            c:/vsarm/armcc/10 2021.10/bin/../lib/gcc/arm-none-eabi/10.3.1/../../../../arm-none-eabi/lib/thumb/v7-m/nofp\libc_nano.a(lib_a-lock.o)
__lock___env_recursive_mutex                      c:/vsarm/armcc/10 2021.10/bin/../lib/gcc/arm-none-eabi/10.3.1/../../../../arm-none-eabi/lib/thumb/v7-m/nofp\libc_nano.a(lib_a-lock.o)
__lock___malloc_recursive_mutex                   c:/vsarm/armcc/10 2021.10/bin/../lib/gcc/arm-none-eabi/10.3.1/../../../../arm-none-eabi/lib/thumb/v7-m/nofp\libc_nano.a(lib_a-lock.o)
                                                  c:/vsarm/armcc/10 2021.10/bin/../lib/gcc/arm-none-eabi/10.3.1/../../../../arm-none-eabi/lib/thumb/v7-m/nofp\libc_nano.a(lib_a-mlock.o)
__lock___sfp_recursive_mutex                      c:/vsarm/armcc/10 2021.10/bin/../lib/gcc/arm-none-eabi/10.3.1/../../../../arm-none-eabi/lib/thumb/v7-m/nofp\libc_nano.a(lib_a-lock.o)
                                                  c:/vsarm/armcc/10 2021.10/bin/../lib/gcc/arm-none-eabi/10.3.1/../../../../arm-none-eabi/lib/thumb/v7-m/nofp\libc_nano.a(lib_a-findfp.o)
__lock___sinit_recursive_mutex                    c:/vsarm/armcc/10 2021.10/bin/../lib/gcc/arm-none-eabi/10.3.1/../../../../arm-none-eabi/lib/thumb/v7-m/nofp\libc_nano.a(lib_a-lock.o)
                                                  c:/vsarm/armcc/10 2021.10/bin/../lib/gcc/arm-none-eabi/10.3.1/../../../../arm-none-eabi/lib/thumb/v7-m/nofp\libc_nano.a(lib_a-findfp.o)
__lock___tz_mutex                                 c:/vsarm/armcc/10 2021.10/bin/../lib/gcc/arm-none-eabi/10.3.1/../../../../arm-none-eabi/lib/thumb/v7-m/nofp\libc_nano.a(lib_a-lock.o)
__malloc_free_list                                c:/vsarm/armcc/10 2021.10/bin/../lib/gcc/arm-none-eabi/10.3.1/../../../../arm-none-eabi/lib/thumb/v7-m/nofp\libc_nano.a(lib_a-nano-mallocr.o)
                                                  c:/vsarm/armcc/10 2021.10/bin/../lib/gcc/arm-none-eabi/10.3.1/../../../../arm-none-eabi/lib/thumb/v7-m/nofp\libc_nano.a(lib_a-nano-freer.o)
__malloc_lock                                     c:/vsarm/armcc/10 2021.10/bin/../lib/gcc/arm-none-eabi/10.3.1/../../../../arm-none-eabi/lib/thumb/v7-m/nofp\libc_nano.a(lib_a-mlock.o)
                                                  c:/vsarm/armcc/10 2021.10/bin/../lib/gcc/arm-none-eabi/10.3.1/../../../../arm-none-eabi/lib/thumb/v7-m/nofp\libc_nano.a(lib_a-nano-freer.o)
                                                  c:/vsarm/armcc/10 2021.10/bin/../lib/gcc/arm-none-eabi/10.3.1/../../../../arm-none-eabi/lib/thumb/v7-m/nofp\libc_nano.a(lib_a-nano-mallocr.o)
__malloc_sbrk_start                               c:/vsarm/armcc/10 2021.10/bin/../lib/gcc/arm-none-eabi/10.3.1/../../../../arm-none-eabi/lib/thumb/v7-m/nofp\libc_nano.a(lib_a-nano-mallocr.o)
__malloc_unlock                                   c:/vsarm/armcc/10 2021.10/bin/../lib/gcc/arm-none-eabi/10.3.1/../../../../arm-none-eabi/lib/thumb/v7-m/nofp\libc_nano.a(lib_a-mlock.o)
                                                  c:/vsarm/armcc/10 2021.10/bin/../lib/gcc/arm-none-eabi/10.3.1/../../../../arm-none-eabi/lib/thumb/v7-m/nofp\libc_nano.a(lib_a-nano-freer.o)
                                                  c:/vsarm/armcc/10 2021.10/bin/../lib/gcc/arm-none-eabi/10.3.1/../../../../arm-none-eabi/lib/thumb/v7-m/nofp\libc_nano.a(lib_a-nano-mallocr.o)
__preinit_array_end                               c:/vsarm/armcc/10 2021.10/bin/../lib/gcc/arm-none-eabi/10.3.1/../../../../arm-none-eabi/lib/thumb/v7-m/nofp\libc_nano.a(lib_a-init.o)
__preinit_array_start                             c:/vsarm/armcc/10 2021.10/bin/../lib/gcc/arm-none-eabi/10.3.1/../../../../arm-none-eabi/lib/thumb/v7-m/nofp\libc_nano.a(lib_a-init.o)
__register_frame_info                             c:/vsarm/armcc/10 2021.10/bin/../lib/gcc/arm-none-eabi/10.3.1/thumb/v7-m/nofp/crtbegin.o
__retarget_lock_acquire                           c:/vsarm/armcc/10 2021.10/bin/../lib/gcc/arm-none-eabi/10.3.1/../../../../arm-none-eabi/lib/thumb/v7-m/nofp\libc_nano.a(lib_a-lock.o)
__retarget_lock_acquire_recursive                 c:/vsarm/armcc/10 2021.10/bin/../lib/gcc/arm-none-eabi/10.3.1/../../../../arm-none-eabi/lib/thumb/v7-m/nofp\libc_nano.a(lib_a-lock.o)
                                                  c:/vsarm/armcc/10 2021.10/bin/../lib/gcc/arm-none-eabi/10.3.1/../../../../arm-none-eabi/lib/thumb/v7-m/nofp\libc_nano.a(lib_a-mlock.o)
                                                  c:/vsarm/armcc/10 2021.10/bin/../lib/gcc/arm-none-eabi/10.3.1/../../../../arm-none-eabi/lib/thumb/v7-m/nofp\libc_nano.a(lib_a-fflush.o)
                                                  c:/vsarm/armcc/10 2021.10/bin/../lib/gcc/arm-none-eabi/10.3.1/../../../../arm-none-eabi/lib/thumb/v7-m/nofp\libc_nano.a(lib_a-nano-vfprintf.o)
                                                  c:/vsarm/armcc/10 2021.10/bin/../lib/gcc/arm-none-eabi/10.3.1/../../../../arm-none-eabi/lib/thumb/v7-m/nofp\libc_nano.a(lib_a-findfp.o)
__retarget_lock_close                             c:/vsarm/armcc/10 2021.10/bin/../lib/gcc/arm-none-eabi/10.3.1/../../../../arm-none-eabi/lib/thumb/v7-m/nofp\libc_nano.a(lib_a-lock.o)
__retarget_lock_close_recursive                   c:/vsarm/armcc/10 2021.10/bin/../lib/gcc/arm-none-eabi/10.3.1/../../../../arm-none-eabi/lib/thumb/v7-m/nofp\libc_nano.a(lib_a-lock.o)
__retarget_lock_init                              c:/vsarm/armcc/10 2021.10/bin/../lib/gcc/arm-none-eabi/10.3.1/../../../../arm-none-eabi/lib/thumb/v7-m/nofp\libc_nano.a(lib_a-lock.o)
__retarget_lock_init_recursive                    c:/vsarm/armcc/10 2021.10/bin/../lib/gcc/arm-none-eabi/10.3.1/../../../../arm-none-eabi/lib/thumb/v7-m/nofp\libc_nano.a(lib_a-lock.o)
                                                  c:/vsarm/armcc/10 2021.10/bin/../lib/gcc/arm-none-eabi/10.3.1/../../../../arm-none-eabi/lib/thumb/v7-m/nofp\libc_nano.a(lib_a-findfp.o)
__retarget_lock_release                           c:/vsarm/armcc/10 2021.10/bin/../lib/gcc/arm-none-eabi/10.3.1/../../../../arm-none-eabi/lib/thumb/v7-m/nofp\libc_nano.a(lib_a-lock.o)
__retarget_lock_release_recursive                 c:/vsarm/armcc/10 2021.10/bin/../lib/gcc/arm-none-eabi/10.3.1/../../../../arm-none-eabi/lib/thumb/v7-m/nofp\libc_nano.a(lib_a-lock.o)
                                                  c:/vsarm/armcc/10 2021.10/bin/../lib/gcc/arm-none-eabi/10.3.1/../../../../arm-none-eabi/lib/thumb/v7-m/nofp\libc_nano.a(lib_a-mlock.o)
                                                  c:/vsarm/armcc/10 2021.10/bin/../lib/gcc/arm-none-eabi/10.3.1/../../../../arm-none-eabi/lib/thumb/v7-m/nofp\libc_nano.a(lib_a-fflush.o)
                                                  c:/vsarm/armcc/10 2021.10/bin/../lib/gcc/arm-none-eabi/10.3.1/../../../../arm-none-eabi/lib/thumb/v7-m/nofp\libc_nano.a(lib_a-nano-vfprintf.o)
                                                  c:/vsarm/armcc/10 2021.10/bin/../lib/gcc/arm-none-eabi/10.3.1/../../../../arm-none-eabi/lib/thumb/v7-m/nofp\libc_nano.a(lib_a-findfp.o)
__retarget_lock_try_acquire                       c:/vsarm/armcc/10 2021.10/bin/../lib/gcc/arm-none-eabi/10.3.1/../../../../arm-none-eabi/lib/thumb/v7-m/nofp\libc_nano.a(lib_a-lock.o)
__retarget_lock_try_acquire_recursive             c:/vsarm/armcc/10 2021.10/bin/../lib/gcc/arm-none-eabi/10.3.1/../../../../arm-none-eabi/lib/thumb/v7-m/nofp\libc_nano.a(lib_a-lock.o)
__sclose                                          c:/vsarm/armcc/10 2021.10/bin/../lib/gcc/arm-none-eabi/10.3.1/../../../../arm-none-eabi/lib/thumb/v7-m/nofp\libc_nano.a(lib_a-stdio.o)
                                                  c:/vsarm/armcc/10 2021.10/bin/../lib/gcc/arm-none-eabi/10.3.1/../../../../arm-none-eabi/lib/thumb/v7-m/nofp\libc_nano.a(lib_a-findfp.o)
__seofread                                        c:/vsarm/armcc/10 2021.10/bin/../lib/gcc/arm-none-eabi/10.3.1/../../../../arm-none-eabi/lib/thumb/v7-m/nofp\libc_nano.a(lib_a-stdio.o)
__sf_fake_stderr                                  c:/vsarm/armcc/10 2021.10/bin/../lib/gcc/arm-none-eabi/10.3.1/../../../../arm-none-eabi/lib/thumb/v7-m/nofp\libc_nano.a(lib_a-findfp.o)
                                                  c:/vsarm/armcc/10 2021.10/bin/../lib/gcc/arm-none-eabi/10.3.1/../../../../arm-none-eabi/lib/thumb/v7-m/nofp\libc_nano.a(lib_a-fflush.o)
                                                  c:/vsarm/armcc/10 2021.10/bin/../lib/gcc/arm-none-eabi/10.3.1/../../../../arm-none-eabi/lib/thumb/v7-m/nofp\libc_nano.a(lib_a-wsetup.o)
                                                  c:/vsarm/armcc/10 2021.10/bin/../lib/gcc/arm-none-eabi/10.3.1/../../../../arm-none-eabi/lib/thumb/v7-m/nofp\libc_nano.a(lib_a-wbuf.o)
                                                  c:/vsarm/armcc/10 2021.10/bin/../lib/gcc/arm-none-eabi/10.3.1/../../../../arm-none-eabi/lib/thumb/v7-m/nofp\libc_nano.a(lib_a-nano-vfprintf.o)
                                                  c:/vsarm/armcc/10 2021.10/bin/../lib/gcc/arm-none-eabi/10.3.1/../../../../arm-none-eabi/lib/thumb/v7-m/nofp\libc_nano.a(lib_a-impure.o)
__sf_fake_stdin                                   c:/vsarm/armcc/10 2021.10/bin/../lib/gcc/arm-none-eabi/10.3.1/../../../../arm-none-eabi/lib/thumb/v7-m/nofp\libc_nano.a(lib_a-findfp.o)
                                                  c:/vsarm/armcc/10 2021.10/bin/../lib/gcc/arm-none-eabi/10.3.1/../../../../arm-none-eabi/lib/thumb/v7-m/nofp\libc_nano.a(lib_a-fflush.o)
                                                  c:/vsarm/armcc/10 2021.10/bin/../lib/gcc/arm-none-eabi/10.3.1/../../../../arm-none-eabi/lib/thumb/v7-m/nofp\libc_nano.a(lib_a-wsetup.o)
                                                  c:/vsarm/armcc/10 2021.10/bin/../lib/gcc/arm-none-eabi/10.3.1/../../../../arm-none-eabi/lib/thumb/v7-m/nofp\libc_nano.a(lib_a-wbuf.o)
                                                  c:/vsarm/armcc/10 2021.10/bin/../lib/gcc/arm-none-eabi/10.3.1/../../../../arm-none-eabi/lib/thumb/v7-m/nofp\libc_nano.a(lib_a-nano-vfprintf.o)
                                                  c:/vsarm/armcc/10 2021.10/bin/../lib/gcc/arm-none-eabi/10.3.1/../../../../arm-none-eabi/lib/thumb/v7-m/nofp\libc_nano.a(lib_a-impure.o)
__sf_fake_stdout                                  c:/vsarm/armcc/10 2021.10/bin/../lib/gcc/arm-none-eabi/10.3.1/../../../../arm-none-eabi/lib/thumb/v7-m/nofp\libc_nano.a(lib_a-findfp.o)
                                                  c:/vsarm/armcc/10 2021.10/bin/../lib/gcc/arm-none-eabi/10.3.1/../../../../arm-none-eabi/lib/thumb/v7-m/nofp\libc_nano.a(lib_a-fflush.o)
                                                  c:/vsarm/armcc/10 2021.10/bin/../lib/gcc/arm-none-eabi/10.3.1/../../../../arm-none-eabi/lib/thumb/v7-m/nofp\libc_nano.a(lib_a-wsetup.o)
                                                  c:/vsarm/armcc/10 2021.10/bin/../lib/gcc/arm-none-eabi/10.3.1/../../../../arm-none-eabi/lib/thumb/v7-m/nofp\libc_nano.a(lib_a-wbuf.o)
                                                  c:/vsarm/armcc/10 2021.10/bin/../lib/gcc/arm-none-eabi/10.3.1/../../../../arm-none-eabi/lib/thumb/v7-m/nofp\libc_nano.a(lib_a-nano-vfprintf.o)
                                                  c:/vsarm/armcc/10 2021.10/bin/../lib/gcc/arm-none-eabi/10.3.1/../../../../arm-none-eabi/lib/thumb/v7-m/nofp\libc_nano.a(lib_a-impure.o)
__sflush_r                                        c:/vsarm/armcc/10 2021.10/bin/../lib/gcc/arm-none-eabi/10.3.1/../../../../arm-none-eabi/lib/thumb/v7-m/nofp\libc_nano.a(lib_a-fflush.o)
__sfmoreglue                                      c:/vsarm/armcc/10 2021.10/bin/../lib/gcc/arm-none-eabi/10.3.1/../../../../arm-none-eabi/lib/thumb/v7-m/nofp\libc_nano.a(lib_a-findfp.o)
__sfp                                             c:/vsarm/armcc/10 2021.10/bin/../lib/gcc/arm-none-eabi/10.3.1/../../../../arm-none-eabi/lib/thumb/v7-m/nofp\libc_nano.a(lib_a-findfp.o)
__sfp_lock_acquire                                c:/vsarm/armcc/10 2021.10/bin/../lib/gcc/arm-none-eabi/10.3.1/../../../../arm-none-eabi/lib/thumb/v7-m/nofp\libc_nano.a(lib_a-findfp.o)
__sfp_lock_release                                c:/vsarm/armcc/10 2021.10/bin/../lib/gcc/arm-none-eabi/10.3.1/../../../../arm-none-eabi/lib/thumb/v7-m/nofp\libc_nano.a(lib_a-findfp.o)
__sfputs_r                                        c:/vsarm/armcc/10 2021.10/bin/../lib/gcc/arm-none-eabi/10.3.1/../../../../arm-none-eabi/lib/thumb/v7-m/nofp\libc_nano.a(lib_a-nano-vfprintf.o)
__sfvwrite_r                                      c:/vsarm/armcc/10 2021.10/bin/../lib/gcc/arm-none-eabi/10.3.1/../../../../arm-none-eabi/lib/thumb/v7-m/nofp\libc_nano.a(lib_a-fvwrite.o)
                                                  c:/vsarm/armcc/10 2021.10/bin/../lib/gcc/arm-none-eabi/10.3.1/../../../../arm-none-eabi/lib/thumb/v7-m/nofp\libc_nano.a(lib_a-nano-vfprintf.o)
__sinit                                           c:/vsarm/armcc/10 2021.10/bin/../lib/gcc/arm-none-eabi/10.3.1/../../../../arm-none-eabi/lib/thumb/v7-m/nofp\libc_nano.a(lib_a-findfp.o)
                                                  c:/vsarm/armcc/10 2021.10/bin/../lib/gcc/arm-none-eabi/10.3.1/../../../../arm-none-eabi/lib/thumb/v7-m/nofp\libc_nano.a(lib_a-fflush.o)
                                                  c:/vsarm/armcc/10 2021.10/bin/../lib/gcc/arm-none-eabi/10.3.1/../../../../arm-none-eabi/lib/thumb/v7-m/nofp\libc_nano.a(lib_a-wsetup.o)
                                                  c:/vsarm/armcc/10 2021.10/bin/../lib/gcc/arm-none-eabi/10.3.1/../../../../arm-none-eabi/lib/thumb/v7-m/nofp\libc_nano.a(lib_a-wbuf.o)
                                                  c:/vsarm/armcc/10 2021.10/bin/../lib/gcc/arm-none-eabi/10.3.1/../../../../arm-none-eabi/lib/thumb/v7-m/nofp\libc_nano.a(lib_a-nano-vfprintf.o)
                                                  c:/vsarm/armcc/10 2021.10/bin/../lib/gcc/arm-none-eabi/10.3.1/../../../../arm-none-eabi/lib/thumb/v7-m/nofp\libc_nano.a(lib_a-printf.o)
__sinit_lock_acquire                              c:/vsarm/armcc/10 2021.10/bin/../lib/gcc/arm-none-eabi/10.3.1/../../../../arm-none-eabi/lib/thumb/v7-m/nofp\libc_nano.a(lib_a-findfp.o)
__sinit_lock_release                              c:/vsarm/armcc/10 2021.10/bin/../lib/gcc/arm-none-eabi/10.3.1/../../../../arm-none-eabi/lib/thumb/v7-m/nofp\libc_nano.a(lib_a-findfp.o)
__smakebuf_r                                      c:/vsarm/armcc/10 2021.10/bin/../lib/gcc/arm-none-eabi/10.3.1/../../../../arm-none-eabi/lib/thumb/v7-m/nofp\libc_nano.a(lib_a-makebuf.o)
                                                  c:/vsarm/armcc/10 2021.10/bin/../lib/gcc/arm-none-eabi/10.3.1/../../../../arm-none-eabi/lib/thumb/v7-m/nofp\libc_nano.a(lib_a-wsetup.o)
__sprint_r                                        c:/vsarm/armcc/10 2021.10/bin/../lib/gcc/arm-none-eabi/10.3.1/../../../../arm-none-eabi/lib/thumb/v7-m/nofp\libc_nano.a(lib_a-nano-vfprintf.o)
__sread                                           c:/vsarm/armcc/10 2021.10/bin/../lib/gcc/arm-none-eabi/10.3.1/../../../../arm-none-eabi/lib/thumb/v7-m/nofp\libc_nano.a(lib_a-stdio.o)
                                                  c:/vsarm/armcc/10 2021.10/bin/../lib/gcc/arm-none-eabi/10.3.1/../../../../arm-none-eabi/lib/thumb/v7-m/nofp\libc_nano.a(lib_a-findfp.o)
__sseek                                           c:/vsarm/armcc/10 2021.10/bin/../lib/gcc/arm-none-eabi/10.3.1/../../../../arm-none-eabi/lib/thumb/v7-m/nofp\libc_nano.a(lib_a-stdio.o)
                                                  c:/vsarm/armcc/10 2021.10/bin/../lib/gcc/arm-none-eabi/10.3.1/../../../../arm-none-eabi/lib/thumb/v7-m/nofp\libc_nano.a(lib_a-findfp.o)
__ssprint_r                                       c:/vsarm/armcc/10 2021.10/bin/../lib/gcc/arm-none-eabi/10.3.1/../../../../arm-none-eabi/lib/thumb/v7-m/nofp\libc_nano.a(lib_a-nano-svfprintf.o)
__ssputs_r                                        c:/vsarm/armcc/10 2021.10/bin/../lib/gcc/arm-none-eabi/10.3.1/../../../../arm-none-eabi/lib/thumb/v7-m/nofp\libc_nano.a(lib_a-nano-svfprintf.o)
__stack                                           c:/vsarm/armcc/10 2021.10/bin/../lib/gcc/arm-none-eabi/10.3.1/../../../../arm-none-eabi/lib/thumb/v7-m/nofp/crt0.o
__swbuf                                           c:/vsarm/armcc/10 2021.10/bin/../lib/gcc/arm-none-eabi/10.3.1/../../../../arm-none-eabi/lib/thumb/v7-m/nofp\libc_nano.a(lib_a-wbuf.o)
__swbuf_r                                         c:/vsarm/armcc/10 2021.10/bin/../lib/gcc/arm-none-eabi/10.3.1/../../../../arm-none-eabi/lib/thumb/v7-m/nofp\libc_nano.a(lib_a-wbuf.o)
                                                  c:/vsarm/armcc/10 2021.10/bin/../lib/gcc/arm-none-eabi/10.3.1/../../../../arm-none-eabi/lib/thumb/v7-m/nofp\libc_nano.a(lib_a-nano-vfprintf.o)
__swhatbuf_r                                      c:/vsarm/armcc/10 2021.10/bin/../lib/gcc/arm-none-eabi/10.3.1/../../../../arm-none-eabi/lib/thumb/v7-m/nofp\libc_nano.a(lib_a-makebuf.o)
__swrite                                          c:/vsarm/armcc/10 2021.10/bin/../lib/gcc/arm-none-eabi/10.3.1/../../../../arm-none-eabi/lib/thumb/v7-m/nofp\libc_nano.a(lib_a-stdio.o)
                                                  c:/vsarm/armcc/10 2021.10/bin/../lib/gcc/arm-none-eabi/10.3.1/../../../../arm-none-eabi/lib/thumb/v7-m/nofp\libc_nano.a(lib_a-findfp.o)
__swsetup_r                                       c:/vsarm/armcc/10 2021.10/bin/../lib/gcc/arm-none-eabi/10.3.1/../../../../arm-none-eabi/lib/thumb/v7-m/nofp\libc_nano.a(lib_a-wsetup.o)
                                                  c:/vsarm/armcc/10 2021.10/bin/../lib/gcc/arm-none-eabi/10.3.1/../../../../arm-none-eabi/lib/thumb/v7-m/nofp\libc_nano.a(lib_a-fvwrite.o)
                                                  c:/vsarm/armcc/10 2021.10/bin/../lib/gcc/arm-none-eabi/10.3.1/../../../../arm-none-eabi/lib/thumb/v7-m/nofp\libc_nano.a(lib_a-wbuf.o)
                                                  c:/vsarm/armcc/10 2021.10/bin/../lib/gcc/arm-none-eabi/10.3.1/../../../../arm-none-eabi/lib/thumb/v7-m/nofp\libc_nano.a(lib_a-nano-vfprintf.o)
__udivmoddi4                                      c:/vsarm/armcc/10 2021.10/bin/../lib/gcc/arm-none-eabi/10.3.1/thumb/v7-m/nofp\libgcc.a(_udivmoddi4.o)
                                                  c:/vsarm/armcc/10 2021.10/bin/../lib/gcc/arm-none-eabi/10.3.1/thumb/v7-m/nofp\libgcc.a(_aeabi_uldivmod.o)
_cleanup                                          c:/vsarm/armcc/10 2021.10/bin/../lib/gcc/arm-none-eabi/10.3.1/../../../../arm-none-eabi/lib/thumb/v7-m/nofp\libc_nano.a(lib_a-findfp.o)
_cleanup_r                                        c:/vsarm/armcc/10 2021.10/bin/../lib/gcc/arm-none-eabi/10.3.1/../../../../arm-none-eabi/lib/thumb/v7-m/nofp\libc_nano.a(lib_a-findfp.o)
                                                  c:/vsarm/armcc/10 2021.10/bin/../lib/gcc/arm-none-eabi/10.3.1/../../../../arm-none-eabi/lib/thumb/v7-m/nofp\libc_nano.a(lib_a-makebuf.o)
_close                                            c:/vsarm/armcc/10 2021.10/bin/../lib/gcc/arm-none-eabi/10.3.1/../../../../arm-none-eabi/lib/thumb/v7-m/nofp\libnosys.a(close.o)
                                                  c:/vsarm/armcc/10 2021.10/bin/../lib/gcc/arm-none-eabi/10.3.1/../../../../arm-none-eabi/lib/thumb/v7-m/nofp\libc_nano.a(lib_a-closer.o)
_close_r                                          c:/vsarm/armcc/10 2021.10/bin/../lib/gcc/arm-none-eabi/10.3.1/../../../../arm-none-eabi/lib/thumb/v7-m/nofp\libc_nano.a(lib_a-closer.o)
                                                  c:/vsarm/armcc/10 2021.10/bin/../lib/gcc/arm-none-eabi/10.3.1/../../../../arm-none-eabi/lib/thumb/v7-m/nofp\libc_nano.a(lib_a-stdio.o)
_ebss                                             build/startup_stm32f207xx.o
_edata                                            build/startup_stm32f207xx.o
_estack                                           build/startup_stm32f207xx.o
_exit                                             c:/vsarm/armcc/10 2021.10/bin/../lib/gcc/arm-none-eabi/10.3.1/../../../../arm-none-eabi/lib/thumb/v7-m/nofp\libnosys.a(_exit.o)
                                                  c:/vsarm/armcc/10 2021.10/bin/../lib/gcc/arm-none-eabi/10.3.1/../../../../arm-none-eabi/lib/thumb/v7-m/nofp\libc_nano.a(lib_a-exit.o)
_fflush_r                                         c:/vsarm/armcc/10 2021.10/bin/../lib/gcc/arm-none-eabi/10.3.1/../../../../arm-none-eabi/lib/thumb/v7-m/nofp\libc_nano.a(lib_a-fflush.o)
                                                  c:/vsarm/armcc/10 2021.10/bin/../lib/gcc/arm-none-eabi/10.3.1/../../../../arm-none-eabi/lib/thumb/v7-m/nofp\libc_nano.a(lib_a-fvwrite.o)
                                                  c:/vsarm/armcc/10 2021.10/bin/../lib/gcc/arm-none-eabi/10.3.1/../../../../arm-none-eabi/lib/thumb/v7-m/nofp\libc_nano.a(lib_a-wbuf.o)
                                                  c:/vsarm/armcc/10 2021.10/bin/../lib/gcc/arm-none-eabi/10.3.1/../../../../arm-none-eabi/lib/thumb/v7-m/nofp\libc_nano.a(lib_a-findfp.o)
_fini                                             c:/vsarm/armcc/10 2021.10/bin/../lib/gcc/arm-none-eabi/10.3.1/thumb/v7-m/nofp/crti.o
_free_r                                           c:/vsarm/armcc/10 2021.10/bin/../lib/gcc/arm-none-eabi/10.3.1/../../../../arm-none-eabi/lib/thumb/v7-m/nofp\libc_nano.a(lib_a-nano-freer.o)
                                                  c:/vsarm/armcc/10 2021.10/bin/../lib/gcc/arm-none-eabi/10.3.1/../../../../arm-none-eabi/lib/thumb/v7-m/nofp\libc_nano.a(lib_a-nano-reallocr.o)
                                                  c:/vsarm/armcc/10 2021.10/bin/../lib/gcc/arm-none-eabi/10.3.1/../../../../arm-none-eabi/lib/thumb/v7-m/nofp\libc_nano.a(lib_a-fvwrite.o)
                                                  c:/vsarm/armcc/10 2021.10/bin/../lib/gcc/arm-none-eabi/10.3.1/../../../../arm-none-eabi/lib/thumb/v7-m/nofp\libc_nano.a(lib_a-fflush.o)
                                                  c:/vsarm/armcc/10 2021.10/bin/../lib/gcc/arm-none-eabi/10.3.1/../../../../arm-none-eabi/lib/thumb/v7-m/nofp\libc_nano.a(lib_a-wsetup.o)
                                                  c:/vsarm/armcc/10 2021.10/bin/../lib/gcc/arm-none-eabi/10.3.1/../../../../arm-none-eabi/lib/thumb/v7-m/nofp\libc_nano.a(lib_a-nano-svfprintf.o)
_fstat                                            c:/vsarm/armcc/10 2021.10/bin/../lib/gcc/arm-none-eabi/10.3.1/../../../../arm-none-eabi/lib/thumb/v7-m/nofp\libnosys.a(fstat.o)
                                                  c:/vsarm/armcc/10 2021.10/bin/../lib/gcc/arm-none-eabi/10.3.1/../../../../arm-none-eabi/lib/thumb/v7-m/nofp\libc_nano.a(lib_a-fstatr.o)
_fstat_r                                          c:/vsarm/armcc/10 2021.10/bin/../lib/gcc/arm-none-eabi/10.3.1/../../../../arm-none-eabi/lib/thumb/v7-m/nofp\libc_nano.a(lib_a-fstatr.o)
                                                  c:/vsarm/armcc/10 2021.10/bin/../lib/gcc/arm-none-eabi/10.3.1/../../../../arm-none-eabi/lib/thumb/v7-m/nofp\libc_nano.a(lib_a-makebuf.o)
_fwalk                                            c:/vsarm/armcc/10 2021.10/bin/../lib/gcc/arm-none-eabi/10.3.1/../../../../arm-none-eabi/lib/thumb/v7-m/nofp\libc_nano.a(lib_a-fwalk.o)
                                                  c:/vsarm/armcc/10 2021.10/bin/../lib/gcc/arm-none-eabi/10.3.1/../../../../arm-none-eabi/lib/thumb/v7-m/nofp\libc_nano.a(lib_a-findfp.o)
_fwalk_reent                                      c:/vsarm/armcc/10 2021.10/bin/../lib/gcc/arm-none-eabi/10.3.1/../../../../arm-none-eabi/lib/thumb/v7-m/nofp\libc_nano.a(lib_a-fwalk.o)
                                                  c:/vsarm/armcc/10 2021.10/bin/../lib/gcc/arm-none-eabi/10.3.1/../../../../arm-none-eabi/lib/thumb/v7-m/nofp\libc_nano.a(lib_a-fflush.o)
                                                  c:/vsarm/armcc/10 2021.10/bin/../lib/gcc/arm-none-eabi/10.3.1/../../../../arm-none-eabi/lib/thumb/v7-m/nofp\libc_nano.a(lib_a-findfp.o)
_global_impure_ptr                                c:/vsarm/armcc/10 2021.10/bin/../lib/gcc/arm-none-eabi/10.3.1/../../../../arm-none-eabi/lib/thumb/v7-m/nofp\libc_nano.a(lib_a-impure.o)
                                                  c:/vsarm/armcc/10 2021.10/bin/../lib/gcc/arm-none-eabi/10.3.1/../../../../arm-none-eabi/lib/thumb/v7-m/nofp\libc_nano.a(lib_a-fflush.o)
                                                  c:/vsarm/armcc/10 2021.10/bin/../lib/gcc/arm-none-eabi/10.3.1/../../../../arm-none-eabi/lib/thumb/v7-m/nofp\libc_nano.a(lib_a-findfp.o)
                                                  c:/vsarm/armcc/10 2021.10/bin/../lib/gcc/arm-none-eabi/10.3.1/../../../../arm-none-eabi/lib/thumb/v7-m/nofp\libc_nano.a(lib_a-exit.o)
_impure_ptr                                       c:/vsarm/armcc/10 2021.10/bin/../lib/gcc/arm-none-eabi/10.3.1/../../../../arm-none-eabi/lib/thumb/v7-m/nofp\libc_nano.a(lib_a-impure.o)
                                                  c:/vsarm/armcc/10 2021.10/bin/../lib/gcc/arm-none-eabi/10.3.1/../../../../arm-none-eabi/lib/thumb/v7-m/nofp\libc_nano.a(lib_a-fflush.o)
                                                  c:/vsarm/armcc/10 2021.10/bin/../lib/gcc/arm-none-eabi/10.3.1/../../../../arm-none-eabi/lib/thumb/v7-m/nofp\libc_nano.a(lib_a-wsetup.o)
                                                  c:/vsarm/armcc/10 2021.10/bin/../lib/gcc/arm-none-eabi/10.3.1/../../../../arm-none-eabi/lib/thumb/v7-m/nofp\libc_nano.a(lib_a-wbuf.o)
                                                  c:/vsarm/armcc/10 2021.10/bin/../lib/gcc/arm-none-eabi/10.3.1/../../../../arm-none-eabi/lib/thumb/v7-m/nofp\libc_nano.a(lib_a-nano-vfprintf.o)
                                                  c:/vsarm/armcc/10 2021.10/bin/../lib/gcc/arm-none-eabi/10.3.1/../../../../arm-none-eabi/lib/thumb/v7-m/nofp\libc_nano.a(lib_a-findfp.o)
                                                  c:/vsarm/armcc/10 2021.10/bin/../lib/gcc/arm-none-eabi/10.3.1/../../../../arm-none-eabi/lib/thumb/v7-m/nofp\libc_nano.a(lib_a-sprintf.o)
                                                  c:/vsarm/armcc/10 2021.10/bin/../lib/gcc/arm-none-eabi/10.3.1/../../../../arm-none-eabi/lib/thumb/v7-m/nofp\libc_nano.a(lib_a-printf.o)
_init                                             c:/vsarm/armcc/10 2021.10/bin/../lib/gcc/arm-none-eabi/10.3.1/thumb/v7-m/nofp/crti.o
                                                  c:/vsarm/armcc/10 2021.10/bin/../lib/gcc/arm-none-eabi/10.3.1/../../../../arm-none-eabi/lib/thumb/v7-m/nofp\libc_nano.a(lib_a-init.o)
_iprintf_r                                        c:/vsarm/armcc/10 2021.10/bin/../lib/gcc/arm-none-eabi/10.3.1/../../../../arm-none-eabi/lib/thumb/v7-m/nofp\libc_nano.a(lib_a-printf.o)
_isatty                                           c:/vsarm/armcc/10 2021.10/bin/../lib/gcc/arm-none-eabi/10.3.1/../../../../arm-none-eabi/lib/thumb/v7-m/nofp\libnosys.a(isatty.o)
                                                  c:/vsarm/armcc/10 2021.10/bin/../lib/gcc/arm-none-eabi/10.3.1/../../../../arm-none-eabi/lib/thumb/v7-m/nofp\libc_nano.a(lib_a-isattyr.o)
_isatty_r                                         c:/vsarm/armcc/10 2021.10/bin/../lib/gcc/arm-none-eabi/10.3.1/../../../../arm-none-eabi/lib/thumb/v7-m/nofp\libc_nano.a(lib_a-isattyr.o)
                                                  c:/vsarm/armcc/10 2021.10/bin/../lib/gcc/arm-none-eabi/10.3.1/../../../../arm-none-eabi/lib/thumb/v7-m/nofp\libc_nano.a(lib_a-makebuf.o)
_lseek                                            c:/vsarm/armcc/10 2021.10/bin/../lib/gcc/arm-none-eabi/10.3.1/../../../../arm-none-eabi/lib/thumb/v7-m/nofp\libnosys.a(lseek.o)
                                                  c:/vsarm/armcc/10 2021.10/bin/../lib/gcc/arm-none-eabi/10.3.1/../../../../arm-none-eabi/lib/thumb/v7-m/nofp\libc_nano.a(lib_a-lseekr.o)
_lseek_r                                          c:/vsarm/armcc/10 2021.10/bin/../lib/gcc/arm-none-eabi/10.3.1/../../../../arm-none-eabi/lib/thumb/v7-m/nofp\libc_nano.a(lib_a-lseekr.o)
                                                  c:/vsarm/armcc/10 2021.10/bin/../lib/gcc/arm-none-eabi/10.3.1/../../../../arm-none-eabi/lib/thumb/v7-m/nofp\libc_nano.a(lib_a-stdio.o)
_mainCRTStartup                                   c:/vsarm/armcc/10 2021.10/bin/../lib/gcc/arm-none-eabi/10.3.1/../../../../arm-none-eabi/lib/thumb/v7-m/nofp/crt0.o
_malloc_r                                         c:/vsarm/armcc/10 2021.10/bin/../lib/gcc/arm-none-eabi/10.3.1/../../../../arm-none-eabi/lib/thumb/v7-m/nofp\libc_nano.a(lib_a-nano-mallocr.o)
                                                  c:/vsarm/armcc/10 2021.10/bin/../lib/gcc/arm-none-eabi/10.3.1/../../../../arm-none-eabi/lib/thumb/v7-m/nofp\libc_nano.a(lib_a-nano-reallocr.o)
                                                  c:/vsarm/armcc/10 2021.10/bin/../lib/gcc/arm-none-eabi/10.3.1/../../../../arm-none-eabi/lib/thumb/v7-m/nofp\libc_nano.a(lib_a-makebuf.o)
                                                  c:/vsarm/armcc/10 2021.10/bin/../lib/gcc/arm-none-eabi/10.3.1/../../../../arm-none-eabi/lib/thumb/v7-m/nofp\libc_nano.a(lib_a-fvwrite.o)
                                                  c:/vsarm/armcc/10 2021.10/bin/../lib/gcc/arm-none-eabi/10.3.1/../../../../arm-none-eabi/lib/thumb/v7-m/nofp\libc_nano.a(lib_a-nano-svfprintf.o)
                                                  c:/vsarm/armcc/10 2021.10/bin/../lib/gcc/arm-none-eabi/10.3.1/../../../../arm-none-eabi/lib/thumb/v7-m/nofp\libc_nano.a(lib_a-findfp.o)
_malloc_usable_size_r                             c:/vsarm/armcc/10 2021.10/bin/../lib/gcc/arm-none-eabi/10.3.1/../../../../arm-none-eabi/lib/thumb/v7-m/nofp\libc_nano.a(lib_a-nano-msizer.o)
                                                  c:/vsarm/armcc/10 2021.10/bin/../lib/gcc/arm-none-eabi/10.3.1/../../../../arm-none-eabi/lib/thumb/v7-m/nofp\libc_nano.a(lib_a-nano-reallocr.o)
_printf_common                                    c:/vsarm/armcc/10 2021.10/bin/../lib/gcc/arm-none-eabi/10.3.1/../../../../arm-none-eabi/lib/thumb/v7-m/nofp\libc_nano.a(lib_a-nano-vfprintf_i.o)
_printf_float                                     c:/vsarm/armcc/10 2021.10/bin/../lib/gcc/arm-none-eabi/10.3.1/../../../../arm-none-eabi/lib/thumb/v7-m/nofp\libc_nano.a(lib_a-nano-vfprintf.o)
                                                  c:/vsarm/armcc/10 2021.10/bin/../lib/gcc/arm-none-eabi/10.3.1/../../../../arm-none-eabi/lib/thumb/v7-m/nofp\libc_nano.a(lib_a-nano-svfprintf.o)
_printf_i                                         c:/vsarm/armcc/10 2021.10/bin/../lib/gcc/arm-none-eabi/10.3.1/../../../../arm-none-eabi/lib/thumb/v7-m/nofp\libc_nano.a(lib_a-nano-vfprintf_i.o)
                                                  c:/vsarm/armcc/10 2021.10/bin/../lib/gcc/arm-none-eabi/10.3.1/../../../../arm-none-eabi/lib/thumb/v7-m/nofp\libc_nano.a(lib_a-nano-vfprintf.o)
                                                  c:/vsarm/armcc/10 2021.10/bin/../lib/gcc/arm-none-eabi/10.3.1/../../../../arm-none-eabi/lib/thumb/v7-m/nofp\libc_nano.a(lib_a-nano-svfprintf.o)
_printf_r                                         c:/vsarm/armcc/10 2021.10/bin/../lib/gcc/arm-none-eabi/10.3.1/../../../../arm-none-eabi/lib/thumb/v7-m/nofp\libc_nano.a(lib_a-printf.o)
_read                                             c:/vsarm/armcc/10 2021.10/bin/../lib/gcc/arm-none-eabi/10.3.1/../../../../arm-none-eabi/lib/thumb/v7-m/nofp\libnosys.a(read.o)
                                                  c:/vsarm/armcc/10 2021.10/bin/../lib/gcc/arm-none-eabi/10.3.1/../../../../arm-none-eabi/lib/thumb/v7-m/nofp\libc_nano.a(lib_a-readr.o)
_read_r                                           c:/vsarm/armcc/10 2021.10/bin/../lib/gcc/arm-none-eabi/10.3.1/../../../../arm-none-eabi/lib/thumb/v7-m/nofp\libc_nano.a(lib_a-readr.o)
                                                  c:/vsarm/armcc/10 2021.10/bin/../lib/gcc/arm-none-eabi/10.3.1/../../../../arm-none-eabi/lib/thumb/v7-m/nofp\libc_nano.a(lib_a-stdio.o)
_realloc_r                                        c:/vsarm/armcc/10 2021.10/bin/../lib/gcc/arm-none-eabi/10.3.1/../../../../arm-none-eabi/lib/thumb/v7-m/nofp\libc_nano.a(lib_a-nano-reallocr.o)
                                                  c:/vsarm/armcc/10 2021.10/bin/../lib/gcc/arm-none-eabi/10.3.1/../../../../arm-none-eabi/lib/thumb/v7-m/nofp\libc_nano.a(lib_a-fvwrite.o)
                                                  c:/vsarm/armcc/10 2021.10/bin/../lib/gcc/arm-none-eabi/10.3.1/../../../../arm-none-eabi/lib/thumb/v7-m/nofp\libc_nano.a(lib_a-nano-svfprintf.o)
_sbrk                                             c:/vsarm/armcc/10 2021.10/bin/../lib/gcc/arm-none-eabi/10.3.1/../../../../arm-none-eabi/lib/thumb/v7-m/nofp\libnosys.a(sbrk.o)
                                                  c:/vsarm/armcc/10 2021.10/bin/../lib/gcc/arm-none-eabi/10.3.1/../../../../arm-none-eabi/lib/thumb/v7-m/nofp\libc_nano.a(lib_a-sbrkr.o)
_sbrk_r                                           c:/vsarm/armcc/10 2021.10/bin/../lib/gcc/arm-none-eabi/10.3.1/../../../../arm-none-eabi/lib/thumb/v7-m/nofp\libc_nano.a(lib_a-sbrkr.o)
                                                  c:/vsarm/armcc/10 2021.10/bin/../lib/gcc/arm-none-eabi/10.3.1/../../../../arm-none-eabi/lib/thumb/v7-m/nofp\libc_nano.a(lib_a-nano-mallocr.o)
_sbss                                             build/startup_stm32f207xx.o
_sdata                                            build/startup_stm32f207xx.o
_sidata                                           build/startup_stm32f207xx.o
_siprintf_r                                       c:/vsarm/armcc/10 2021.10/bin/../lib/gcc/arm-none-eabi/10.3.1/../../../../arm-none-eabi/lib/thumb/v7-m/nofp\libc_nano.a(lib_a-sprintf.o)
_sprintf_r                                        c:/vsarm/armcc/10 2021.10/bin/../lib/gcc/arm-none-eabi/10.3.1/../../../../arm-none-eabi/lib/thumb/v7-m/nofp\libc_nano.a(lib_a-sprintf.o)
_stack_init                                       c:/vsarm/armcc/10 2021.10/bin/../lib/gcc/arm-none-eabi/10.3.1/../../../../arm-none-eabi/lib/thumb/v7-m/nofp/crt0.o
_start                                            c:/vsarm/armcc/10 2021.10/bin/../lib/gcc/arm-none-eabi/10.3.1/../../../../arm-none-eabi/lib/thumb/v7-m/nofp/crt0.o
_svfiprintf_r                                     c:/vsarm/armcc/10 2021.10/bin/../lib/gcc/arm-none-eabi/10.3.1/../../../../arm-none-eabi/lib/thumb/v7-m/nofp\libc_nano.a(lib_a-nano-svfprintf.o)
_svfprintf_r                                      c:/vsarm/armcc/10 2021.10/bin/../lib/gcc/arm-none-eabi/10.3.1/../../../../arm-none-eabi/lib/thumb/v7-m/nofp\libc_nano.a(lib_a-nano-svfprintf.o)
                                                  c:/vsarm/armcc/10 2021.10/bin/../lib/gcc/arm-none-eabi/10.3.1/../../../../arm-none-eabi/lib/thumb/v7-m/nofp\libc_nano.a(lib_a-sprintf.o)
_vfiprintf_r                                      c:/vsarm/armcc/10 2021.10/bin/../lib/gcc/arm-none-eabi/10.3.1/../../../../arm-none-eabi/lib/thumb/v7-m/nofp\libc_nano.a(lib_a-nano-vfprintf.o)
_vfprintf_r                                       c:/vsarm/armcc/10 2021.10/bin/../lib/gcc/arm-none-eabi/10.3.1/../../../../arm-none-eabi/lib/thumb/v7-m/nofp\libc_nano.a(lib_a-nano-vfprintf.o)
                                                  c:/vsarm/armcc/10 2021.10/bin/../lib/gcc/arm-none-eabi/10.3.1/../../../../arm-none-eabi/lib/thumb/v7-m/nofp\libc_nano.a(lib_a-printf.o)
_write                                            c:/vsarm/armcc/10 2021.10/bin/../lib/gcc/arm-none-eabi/10.3.1/../../../../arm-none-eabi/lib/thumb/v7-m/nofp\libnosys.a(write.o)
                                                  c:/vsarm/armcc/10 2021.10/bin/../lib/gcc/arm-none-eabi/10.3.1/../../../../arm-none-eabi/lib/thumb/v7-m/nofp\libc_nano.a(lib_a-writer.o)
_write_r                                          c:/vsarm/armcc/10 2021.10/bin/../lib/gcc/arm-none-eabi/10.3.1/../../../../arm-none-eabi/lib/thumb/v7-m/nofp\libc_nano.a(lib_a-writer.o)
                                                  c:/vsarm/armcc/10 2021.10/bin/../lib/gcc/arm-none-eabi/10.3.1/../../../../arm-none-eabi/lib/thumb/v7-m/nofp\libc_nano.a(lib_a-stdio.o)
abuf                                              build/main.o
atexit                                            c:/vsarm/armcc/10 2021.10/bin/../lib/gcc/arm-none-eabi/10.3.1/../../../../arm-none-eabi/lib/thumb/v7-m/nofp/crt0.o
attributes                                        build/lwip.o
defaultTaskHandle                                 build/main.o
defaultTask_attributes                            build/main.o
eTaskGetState                                     build/tasks.o
                                                  build/cmsis_os2.o
end                                               c:/vsarm/armcc/10 2021.10/bin/../lib/gcc/arm-none-eabi/10.3.1/../../../../arm-none-eabi/lib/thumb/v7-m/nofp\libnosys.a(sbrk.o)
err_to_errno                                      build/err.o
                                                  build/sockets.o
errno                                             build/sys_arch.o
                                                  c:/vsarm/armcc/10 2021.10/bin/../lib/gcc/arm-none-eabi/10.3.1/../../../../arm-none-eabi/lib/thumb/v7-m/nofp\libnosys.a(write.o)
                                                  c:/vsarm/armcc/10 2021.10/bin/../lib/gcc/arm-none-eabi/10.3.1/../../../../arm-none-eabi/lib/thumb/v7-m/nofp\libnosys.a(read.o)
                                                  c:/vsarm/armcc/10 2021.10/bin/../lib/gcc/arm-none-eabi/10.3.1/../../../../arm-none-eabi/lib/thumb/v7-m/nofp\libnosys.a(lseek.o)
                                                  c:/vsarm/armcc/10 2021.10/bin/../lib/gcc/arm-none-eabi/10.3.1/../../../../arm-none-eabi/lib/thumb/v7-m/nofp\libnosys.a(isatty.o)
                                                  c:/vsarm/armcc/10 2021.10/bin/../lib/gcc/arm-none-eabi/10.3.1/../../../../arm-none-eabi/lib/thumb/v7-m/nofp\libnosys.a(fstat.o)
                                                  c:/vsarm/armcc/10 2021.10/bin/../lib/gcc/arm-none-eabi/10.3.1/../../../../arm-none-eabi/lib/thumb/v7-m/nofp\libnosys.a(close.o)
                                                  c:/vsarm/armcc/10 2021.10/bin/../lib/gcc/arm-none-eabi/10.3.1/../../../../arm-none-eabi/lib/thumb/v7-m/nofp\libc_nano.a(lib_a-isattyr.o)
                                                  c:/vsarm/armcc/10 2021.10/bin/../lib/gcc/arm-none-eabi/10.3.1/../../../../arm-none-eabi/lib/thumb/v7-m/nofp\libc_nano.a(lib_a-fstatr.o)
                                                  c:/vsarm/armcc/10 2021.10/bin/../lib/gcc/arm-none-eabi/10.3.1/../../../../arm-none-eabi/lib/thumb/v7-m/nofp\libc_nano.a(lib_a-readr.o)
                                                  c:/vsarm/armcc/10 2021.10/bin/../lib/gcc/arm-none-eabi/10.3.1/../../../../arm-none-eabi/lib/thumb/v7-m/nofp\libc_nano.a(lib_a-lseekr.o)
                                                  c:/vsarm/armcc/10 2021.10/bin/../lib/gcc/arm-none-eabi/10.3.1/../../../../arm-none-eabi/lib/thumb/v7-m/nofp\libc_nano.a(lib_a-closer.o)
                                                  c:/vsarm/armcc/10 2021.10/bin/../lib/gcc/arm-none-eabi/10.3.1/../../../../arm-none-eabi/lib/thumb/v7-m/nofp\libc_nano.a(lib_a-writer.o)
                                                  c:/vsarm/armcc/10 2021.10/bin/../lib/gcc/arm-none-eabi/10.3.1/../../../../arm-none-eabi/lib/thumb/v7-m/nofp\libc_nano.a(lib_a-sbrkr.o)
                                                  build/sockets.o
errorUartSR                                       build/sio.o
etharp_cleanup_netif                              build/etharp.o
                                                  build/netif.o
etharp_find_addr                                  build/etharp.o
etharp_get_entry                                  build/etharp.o
etharp_input                                      build/etharp.o
                                                  build/ethernet.o
etharp_output                                     build/etharp.o
                                                  build/ethernetif.o
etharp_query                                      build/etharp.o
etharp_request                                    build/etharp.o
                                                  build/netif.o
etharp_tmr                                        build/etharp.o
                                                  build/timeouts.o
ethbroadcast                                      build/ethernet.o
                                                  build/etharp.o
ethernet_input                                    build/ethernet.o
                                                  build/netif.o
                                                  build/tcpip.o
ethernet_output                                   build/ethernet.o
                                                  build/etharp.o
ethernetif_init                                   build/ethernetif.o
                                                  build/lwip.o
ethernetif_input                                  build/ethernetif.o
ethernetif_notify_conn_changed                    build/ethernetif.o
ethernetif_set_link                               build/ethernetif.o
                                                  build/lwip.o
ethernetif_update_config                          build/ethernetif.o
                                                  build/lwip.o
ethzero                                           build/ethernet.o
                                                  build/etharp.o
exit                                              c:/vsarm/armcc/10 2021.10/bin/../lib/gcc/arm-none-eabi/10.3.1/../../../../arm-none-eabi/lib/thumb/v7-m/nofp\libc_nano.a(lib_a-exit.o)
                                                  c:/vsarm/armcc/10 2021.10/bin/../lib/gcc/arm-none-eabi/10.3.1/../../../../arm-none-eabi/lib/thumb/v7-m/nofp/crt0.o
fflush                                            c:/vsarm/armcc/10 2021.10/bin/../lib/gcc/arm-none-eabi/10.3.1/../../../../arm-none-eabi/lib/thumb/v7-m/nofp\libc_nano.a(lib_a-fflush.o)
funcCB                                            build/main.o
g_pfnVectors                                      build/startup_stm32f207xx.o
gnetif                                            build/lwip.o
                                                  build/main.o
gw                                                build/lwip.o
hardware_init_hook                                c:/vsarm/armcc/10 2021.10/bin/../lib/gcc/arm-none-eabi/10.3.1/../../../../arm-none-eabi/lib/thumb/v7-m/nofp/crt0.o
heth                                              build/ethernetif.o
                                                  build/stm32f2xx_it.o
htim4                                             build/stm32f2xx_hal_timebase_tim.o
                                                  build/stm32f2xx_it.o
huart2                                            build/main.o
                                                  build/stm32f2xx_it.o
                                                  build/sio.o
huart3                                            build/main.o
                                                  build/stm32f2xx_it.o
                                                  build/sio.o
icmp_dest_unreach                                 build/icmp.o
                                                  build/ip4.o
                                                  build/udp.o
icmp_input                                        build/icmp.o
                                                  build/ip4.o
icmp_time_exceeded                                build/icmp.o
                                                  build/ip4_frag.o
inet_chksum                                       build/inet_chksum.o
inet_chksum_pbuf                                  build/inet_chksum.o
inet_chksum_pseudo                                build/inet_chksum.o
inet_chksum_pseudo_partial                        build/inet_chksum.o
ip4_addr_isbroadcast_u32                          build/ip4_addr.o
                                                  build/ip4.o
                                                  build/icmp.o
                                                  build/etharp.o
                                                  build/udp.o
                                                  build/tcp_in.o
ip4_addr_netmask_valid                            build/ip4_addr.o
ip4_frag                                          build/ip4_frag.o
                                                  build/ip4.o
ip4_input                                         build/ip4.o
                                                  build/netif.o
                                                  build/tcpip.o
                                                  build/ethernet.o
ip4_output                                        build/ip4.o
ip4_output_if                                     build/ip4.o
                                                  build/icmp.o
                                                  build/tcp_out.o
ip4_output_if_src                                 build/ip4.o
                                                  build/udp.o
ip4_reass                                         build/ip4_frag.o
                                                  build/ip4.o
ip4_route                                         build/ip4.o
                                                  build/icmp.o
                                                  build/udp.o
                                                  build/tcp_out.o
                                                  build/tcp.o
ip4addr_aton                                      build/ip4_addr.o
ip4addr_ntoa                                      build/ip4_addr.o
                                                  build/main.o
ip4addr_ntoa_r                                    build/ip4_addr.o
ip_addr_any                                       build/ip4_addr.o
                                                  build/mqtt.o
                                                  build/ip4.o
                                                  build/udp.o
                                                  build/tcp.o
                                                  build/netif.o
                                                  build/api_lib.o
ip_addr_broadcast                                 build/ip4_addr.o
ip_chksum_pseudo                                  build/inet_chksum.o
ip_chksum_pseudo_partial                          build/inet_chksum.o
ip_data                                           build/ip.o
                                                  build/ip4.o
                                                  build/icmp.o
                                                  build/udp.o
                                                  build/tcp_in.o
ip_reass_tmr                                      build/ip4_frag.o
                                                  build/timeouts.o
ipaddr                                            build/lwip.o
ipaddr_addr                                       build/ip4_addr.o
iprintf                                           c:/vsarm/armcc/10 2021.10/bin/../lib/gcc/arm-none-eabi/10.3.1/../../../../arm-none-eabi/lib/thumb/v7-m/nofp\libc_nano.a(lib_a-printf.o)
link_arg                                          build/lwip.o
lock_tcpip_core                                   build/tcpip.o
                                                  build/timeouts.o
                                                  build/sockets.o
                                                  build/api_msg.o
                                                  build/ethernetif.o
lwip_accept                                       build/sockets.o
lwip_bind                                         build/sockets.o
lwip_close                                        build/sockets.o
lwip_connect                                      build/sockets.o
lwip_cyclic_timers                                build/timeouts.o
lwip_fcntl                                        build/sockets.o
lwip_getpeername                                  build/sockets.o
lwip_getsockname                                  build/sockets.o
lwip_getsockopt                                   build/sockets.o
lwip_htonl                                        build/def.o
                                                  build/ip4_addr.o
                                                  build/tcp_out.o
                                                  build/tcp_in.o
lwip_htons                                        build/def.o
                                                  build/ip4_frag.o
                                                  build/ip4.o
                                                  build/etharp.o
                                                  build/udp.o
                                                  build/tcp_out.o
                                                  build/tcp_in.o
                                                  build/inet_chksum.o
                                                  build/sockets.o
                                                  build/ethernet.o
lwip_init                                         build/init.o
                                                  build/tcpip.o
lwip_ioctl                                        build/sockets.o
lwip_itoa                                         build/def.o
lwip_listen                                       build/sockets.o
lwip_netconn_do_bind                              build/api_msg.o
                                                  build/api_lib.o
lwip_netconn_do_close                             build/api_msg.o
                                                  build/api_lib.o
lwip_netconn_do_connect                           build/api_msg.o
                                                  build/api_lib.o
lwip_netconn_do_delconn                           build/api_msg.o
                                                  build/api_lib.o
lwip_netconn_do_disconnect                        build/api_msg.o
                                                  build/api_lib.o
lwip_netconn_do_getaddr                           build/api_msg.o
                                                  build/api_lib.o
lwip_netconn_do_listen                            build/api_msg.o
                                                  build/api_lib.o
lwip_netconn_do_newconn                           build/api_msg.o
                                                  build/api_lib.o
lwip_netconn_do_recv                              build/api_msg.o
                                                  build/api_lib.o
lwip_netconn_do_send                              build/api_msg.o
                                                  build/api_lib.o
lwip_netconn_do_write                             build/api_msg.o
                                                  build/api_lib.o
lwip_read                                         build/sockets.o
lwip_recv                                         build/sockets.o
lwip_recvfrom                                     build/sockets.o
lwip_select                                       build/sockets.o
lwip_send                                         build/sockets.o
lwip_sendmsg                                      build/sockets.o
lwip_sendto                                       build/sockets.o
lwip_setsockopt                                   build/sockets.o
lwip_shutdown                                     build/sockets.o
lwip_socket                                       build/sockets.o
lwip_socket_thread_cleanup                        build/sockets.o
lwip_socket_thread_init                           build/sockets.o
lwip_standard_chksum                              build/inet_chksum.o
lwip_stricmp                                      build/def.o
lwip_strnicmp                                     build/def.o
lwip_strnstr                                      build/def.o
lwip_sys_mutex                                    build/sys_arch.o
lwip_write                                        build/sockets.o
lwip_writev                                       build/sockets.o
main                                              build/main.o
                                                  build/startup_stm32f207xx.o
                                                  c:/vsarm/armcc/10 2021.10/bin/../lib/gcc/arm-none-eabi/10.3.1/../../../../arm-none-eabi/lib/thumb/v7-m/nofp/crt0.o
mcli_shell_parse                                  build/mcli.o
                                                  build/main.o
mcli_strcmp                                       build/mcli.o
                                                  build/main.o
mcli_strlen                                       build/mcli.o
mcli_strtok                                       build/mcli.o
mem_calloc                                        build/mem.o
mem_free                                          build/mem.o
                                                  build/pbuf.o
                                                  build/tcpip.o
                                                  build/slipif.o
mem_free_callback                                 build/tcpip.o
mem_init                                          build/mem.o
                                                  build/init.o
mem_malloc                                        build/mem.o
                                                  build/mqtt.o
                                                  build/pbuf.o
                                                  build/slipif.o
mem_trim                                          build/mem.o
                                                  build/pbuf.o
memchr                                            c:/vsarm/armcc/10 2021.10/bin/../lib/gcc/arm-none-eabi/10.3.1/../../../../arm-none-eabi/lib/thumb/v7-m/nofp\libc_nano.a(lib_a-memchr-stub.o)
                                                  c:/vsarm/armcc/10 2021.10/bin/../lib/gcc/arm-none-eabi/10.3.1/../../../../arm-none-eabi/lib/thumb/v7-m/nofp\libc_nano.a(lib_a-fvwrite.o)
                                                  c:/vsarm/armcc/10 2021.10/bin/../lib/gcc/arm-none-eabi/10.3.1/../../../../arm-none-eabi/lib/thumb/v7-m/nofp\libc_nano.a(lib_a-nano-vfprintf_i.o)
                                                  c:/vsarm/armcc/10 2021.10/bin/../lib/gcc/arm-none-eabi/10.3.1/../../../../arm-none-eabi/lib/thumb/v7-m/nofp\libc_nano.a(lib_a-nano-vfprintf.o)
                                                  c:/vsarm/armcc/10 2021.10/bin/../lib/gcc/arm-none-eabi/10.3.1/../../../../arm-none-eabi/lib/thumb/v7-m/nofp\libc_nano.a(lib_a-nano-svfprintf.o)
memcmp                                            c:/vsarm/armcc/10 2021.10/bin/../lib/gcc/arm-none-eabi/10.3.1/../../../../arm-none-eabi/lib/thumb/v7-m/nofp\libc_nano.a(lib_a-memcmp.o)
                                                  build/ethernet.o
                                                  build/main.o
memcpy                                            c:/vsarm/armcc/10 2021.10/bin/../lib/gcc/arm-none-eabi/10.3.1/../../../../arm-none-eabi/lib/thumb/v7-m/nofp\libc_nano.a(lib_a-memcpy-stub.o)
                                                  c:/vsarm/armcc/10 2021.10/bin/../lib/gcc/arm-none-eabi/10.3.1/../../../../arm-none-eabi/lib/thumb/v7-m/nofp\libc_nano.a(lib_a-nano-reallocr.o)
                                                  c:/vsarm/armcc/10 2021.10/bin/../lib/gcc/arm-none-eabi/10.3.1/../../../../arm-none-eabi/lib/thumb/v7-m/nofp\libc_nano.a(lib_a-fvwrite.o)
                                                  c:/vsarm/armcc/10 2021.10/bin/../lib/gcc/arm-none-eabi/10.3.1/../../../../arm-none-eabi/lib/thumb/v7-m/nofp\libc_nano.a(lib_a-nano-svfprintf.o)
                                                  build/ip4_frag.o
                                                  build/icmp.o
                                                  build/etharp.o
                                                  build/tcp_out.o
                                                  build/tcp.o
                                                  build/pbuf.o
                                                  build/sockets.o
                                                  build/ethernet.o
                                                  build/cmsis_os2.o
                                                  build/stream_buffer.o
                                                  build/queue.o
                                                  build/ethernetif.o
                                                  build/main.o
memmove                                           c:/vsarm/armcc/10 2021.10/bin/../lib/gcc/arm-none-eabi/10.3.1/../../../../arm-none-eabi/lib/thumb/v7-m/nofp\libc_nano.a(lib_a-memmove.o)
                                                  c:/vsarm/armcc/10 2021.10/bin/../lib/gcc/arm-none-eabi/10.3.1/../../../../arm-none-eabi/lib/thumb/v7-m/nofp\libc_nano.a(lib_a-fvwrite.o)
                                                  c:/vsarm/armcc/10 2021.10/bin/../lib/gcc/arm-none-eabi/10.3.1/../../../../arm-none-eabi/lib/thumb/v7-m/nofp\libc_nano.a(lib_a-nano-svfprintf.o)
memp_FRAG_PBUF                                    build/memp.o
memp_NETBUF                                       build/memp.o
memp_NETCONN                                      build/memp.o
memp_PBUF                                         build/memp.o
memp_PBUF_POOL                                    build/memp.o
memp_REASSDATA                                    build/memp.o
memp_SYS_TIMEOUT                                  build/memp.o
memp_TCPIP_MSG_API                                build/memp.o
memp_TCPIP_MSG_INPKT                              build/memp.o
memp_TCP_PCB                                      build/memp.o
memp_TCP_PCB_LISTEN                               build/memp.o
memp_TCP_SEG                                      build/memp.o
memp_UDP_PCB                                      build/memp.o
memp_free                                         build/memp.o
                                                  build/ip4_frag.o
                                                  build/udp.o
                                                  build/timeouts.o
                                                  build/tcp_in.o
                                                  build/tcp.o
                                                  build/pbuf.o
                                                  build/tcpip.o
                                                  build/netbuf.o
                                                  build/api_msg.o
                                                  build/api_lib.o
memp_free_pool                                    build/memp.o
memp_init                                         build/memp.o
                                                  build/init.o
memp_init_pool                                    build/memp.o
memp_malloc                                       build/memp.o
                                                  build/ip4_frag.o
                                                  build/udp.o
                                                  build/timeouts.o
                                                  build/tcp_out.o
                                                  build/tcp.o
                                                  build/pbuf.o
                                                  build/tcpip.o
                                                  build/netbuf.o
                                                  build/api_msg.o
                                                  build/api_lib.o
memp_malloc_pool                                  build/memp.o
memp_memory_FRAG_PBUF_base                        build/memp.o
memp_memory_NETBUF_base                           build/memp.o
memp_memory_NETCONN_base                          build/memp.o
memp_memory_PBUF_POOL_base                        build/memp.o
memp_memory_PBUF_base                             build/memp.o
memp_memory_REASSDATA_base                        build/memp.o
memp_memory_SYS_TIMEOUT_base                      build/memp.o
memp_memory_TCPIP_MSG_API_base                    build/memp.o
memp_memory_TCPIP_MSG_INPKT_base                  build/memp.o
memp_memory_TCP_PCB_LISTEN_base                   build/memp.o
memp_memory_TCP_PCB_base                          build/memp.o
memp_memory_TCP_SEG_base                          build/memp.o
memp_memory_UDP_PCB_base                          build/memp.o
memp_pools                                        build/memp.o
memset                                            c:/vsarm/armcc/10 2021.10/bin/../lib/gcc/arm-none-eabi/10.3.1/../../../../arm-none-eabi/lib/thumb/v7-m/nofp\libc_nano.a(lib_a-memset.o)
                                                  c:/vsarm/armcc/10 2021.10/bin/../lib/gcc/arm-none-eabi/10.3.1/../../../../arm-none-eabi/lib/thumb/v7-m/nofp\libc_nano.a(lib_a-findfp.o)
                                                  build/mqtt.o
                                                  build/sys_arch.o
                                                  build/ip4_frag.o
                                                  build/udp.o
                                                  build/tcp.o
                                                  build/mem.o
                                                  build/sockets.o
                                                  build/netbuf.o
                                                  build/tasks.o
                                                  build/stream_buffer.o
                                                  build/lwip.o
                                                  build/ethernetif.o
                                                  build/main.o
                                                  c:/vsarm/armcc/10 2021.10/bin/../lib/gcc/arm-none-eabi/10.3.1/../../../../arm-none-eabi/lib/thumb/v7-m/nofp/crt0.o
mqtt_client_connect                               build/mqtt.o
mqtt_client_is_connected                          build/mqtt.o
mqtt_client_new                                   build/mqtt.o
mqtt_disconnect                                   build/mqtt.o
mqtt_publish                                      build/mqtt.o
mqtt_set_inpub_callback                           build/mqtt.o
mqtt_sub_unsub                                    build/mqtt.o
netbuf_alloc                                      build/netbuf.o
netbuf_chain                                      build/netbuf.o
netbuf_data                                       build/netbuf.o
                                                  build/telnet_server.o
netbuf_delete                                     build/netbuf.o
                                                  build/sockets.o
                                                  build/api_msg.o
                                                  build/telnet_server.o
netbuf_first                                      build/netbuf.o
netbuf_free                                       build/netbuf.o
                                                  build/sockets.o
netbuf_new                                        build/netbuf.o
                                                  build/sockets.o
netbuf_next                                       build/netbuf.o
                                                  build/telnet_server.o
netbuf_ref                                        build/netbuf.o
                                                  build/sockets.o
netconn_aborted                                   build/api_msg.o
                                                  build/api_lib.o
netconn_accept                                    build/api_lib.o
                                                  build/sockets.o
                                                  build/telnet_server.o
netconn_alloc                                     build/api_msg.o
                                                  build/api_lib.o
netconn_bind                                      build/api_lib.o
                                                  build/sockets.o
                                                  build/telnet_server.o
netconn_close                                     build/api_lib.o
                                                  build/telnet_server.o
netconn_connect                                   build/api_lib.o
                                                  build/sockets.o
netconn_delete                                    build/api_lib.o
                                                  build/sockets.o
                                                  build/telnet_server.o
netconn_disconnect                                build/api_lib.o
                                                  build/sockets.o
netconn_free                                      build/api_msg.o
                                                  build/api_lib.o
netconn_getaddr                                   build/api_lib.o
                                                  build/sockets.o
netconn_listen_with_backlog                       build/api_lib.o
                                                  build/sockets.o
                                                  build/telnet_server.o
netconn_new_with_proto_and_callback               build/api_lib.o
                                                  build/sockets.o
                                                  build/telnet_server.o
netconn_recv                                      build/api_lib.o
                                                  build/sockets.o
                                                  build/telnet_server.o
netconn_recv_tcp_pbuf                             build/api_lib.o
                                                  build/sockets.o
netconn_send                                      build/api_lib.o
                                                  build/sockets.o
netconn_sendto                                    build/api_lib.o
netconn_shutdown                                  build/api_lib.o
                                                  build/sockets.o
netconn_write_partly                              build/api_lib.o
                                                  build/sockets.o
                                                  build/telnet_server.o
netif_add                                         build/netif.o
                                                  build/lwip.o
netif_default                                     build/netif.o
                                                  build/ip4.o
netif_find                                        build/netif.o
netif_init                                        build/netif.o
                                                  build/init.o
netif_input                                       build/netif.o
netif_list                                        build/netif.o
                                                  build/ip4.o
netif_remove                                      build/netif.o
netif_set_addr                                    build/netif.o
netif_set_default                                 build/netif.o
                                                  build/lwip.o
netif_set_down                                    build/netif.o
                                                  build/lwip.o
netif_set_gw                                      build/netif.o
netif_set_ipaddr                                  build/netif.o
netif_set_link_callback                           build/netif.o
                                                  build/lwip.o
netif_set_link_down                               build/netif.o
                                                  build/ethernetif.o
netif_set_link_up                                 build/netif.o
                                                  build/ethernetif.o
netif_set_netmask                                 build/netif.o
netif_set_up                                      build/netif.o
                                                  build/lwip.o
netmask                                           build/lwip.o
osDelay                                           build/cmsis_os2.o
                                                  build/ethernetif.o
osDelayUntil                                      build/cmsis_os2.o
osEventFlagsClear                                 build/cmsis_os2.o
osEventFlagsDelete                                build/cmsis_os2.o
osEventFlagsGet                                   build/cmsis_os2.o
osEventFlagsNew                                   build/cmsis_os2.o
osEventFlagsSet                                   build/cmsis_os2.o
osEventFlagsWait                                  build/cmsis_os2.o
osKernelGetInfo                                   build/cmsis_os2.o
osKernelGetState                                  build/cmsis_os2.o
osKernelGetSysTimerCount                          build/cmsis_os2.o
osKernelGetSysTimerFreq                           build/cmsis_os2.o
osKernelGetTickCount                              build/cmsis_os2.o
                                                  build/sys_arch.o
osKernelGetTickFreq                               build/cmsis_os2.o
osKernelInitialize                                build/cmsis_os2.o
                                                  build/main.o
osKernelLock                                      build/cmsis_os2.o
osKernelRestoreLock                               build/cmsis_os2.o
osKernelStart                                     build/cmsis_os2.o
                                                  build/main.o
osKernelUnlock                                    build/cmsis_os2.o
osMessageQueueDelete                              build/cmsis_os2.o
                                                  build/sys_arch.o
osMessageQueueGet                                 build/cmsis_os2.o
                                                  build/sys_arch.o
osMessageQueueGetCapacity                         build/cmsis_os2.o
osMessageQueueGetCount                            build/cmsis_os2.o
                                                  build/sys_arch.o
osMessageQueueGetMsgSize                          build/cmsis_os2.o
osMessageQueueGetSpace                            build/cmsis_os2.o
osMessageQueueNew                                 build/cmsis_os2.o
                                                  build/sys_arch.o
osMessageQueuePut                                 build/cmsis_os2.o
                                                  build/sys_arch.o
osMessageQueueReset                               build/cmsis_os2.o
osMutexAcquire                                    build/cmsis_os2.o
                                                  build/sys_arch.o
osMutexDelete                                     build/cmsis_os2.o
                                                  build/sys_arch.o
osMutexGetOwner                                   build/cmsis_os2.o
osMutexNew                                        build/cmsis_os2.o
                                                  build/sys_arch.o
osMutexRelease                                    build/cmsis_os2.o
                                                  build/sys_arch.o
osSemaphoreAcquire                                build/cmsis_os2.o
                                                  build/sys_arch.o
                                                  build/ethernetif.o
osSemaphoreDelete                                 build/cmsis_os2.o
                                                  build/sys_arch.o
osSemaphoreGetCount                               build/cmsis_os2.o
osSemaphoreNew                                    build/cmsis_os2.o
                                                  build/sys_arch.o
                                                  build/lwip.o
                                                  build/ethernetif.o
osSemaphoreRelease                                build/cmsis_os2.o
                                                  build/sys_arch.o
                                                  build/ethernetif.o
osThreadEnumerate                                 build/cmsis_os2.o
osThreadExit                                      build/cmsis_os2.o
osThreadFlagsClear                                build/cmsis_os2.o
osThreadFlagsGet                                  build/cmsis_os2.o
osThreadFlagsSet                                  build/cmsis_os2.o
osThreadFlagsWait                                 build/cmsis_os2.o
osThreadGetCount                                  build/cmsis_os2.o
osThreadGetId                                     build/cmsis_os2.o
osThreadGetName                                   build/cmsis_os2.o
osThreadGetPriority                               build/cmsis_os2.o
osThreadGetStackSize                              build/cmsis_os2.o
osThreadGetStackSpace                             build/cmsis_os2.o
osThreadGetState                                  build/cmsis_os2.o
osThreadNew                                       build/cmsis_os2.o
                                                  build/sys_arch.o
                                                  build/lwip.o
                                                  build/ethernetif.o
                                                  build/telnet_server.o
                                                  build/main.o
osThreadResume                                    build/cmsis_os2.o
osThreadSetPriority                               build/cmsis_os2.o
osThreadSuspend                                   build/cmsis_os2.o
osThreadTerminate                                 build/cmsis_os2.o
osThreadYield                                     build/cmsis_os2.o
osTimerDelete                                     build/cmsis_os2.o
osTimerGetName                                    build/cmsis_os2.o
osTimerIsRunning                                  build/cmsis_os2.o
osTimerNew                                        build/cmsis_os2.o
osTimerStart                                      build/cmsis_os2.o
osTimerStop                                       build/cmsis_os2.o
pFlash                                            build/stm32f2xx_hal_flash.o
                                                  build/stm32f2xx_hal_flash_ex.o
pbuf_alloc                                        build/pbuf.o
                                                  build/ip4_frag.o
                                                  build/icmp.o
                                                  build/etharp.o
                                                  build/udp.o
                                                  build/tcp_out.o
                                                  build/sockets.o
                                                  build/netbuf.o
                                                  build/slipif.o
                                                  build/ethernetif.o
pbuf_alloced_custom                               build/pbuf.o
                                                  build/ip4_frag.o
pbuf_cat                                          build/pbuf.o
                                                  build/ip4_frag.o
                                                  build/tcp_out.o
                                                  build/tcp_in.o
                                                  build/sockets.o
                                                  build/netbuf.o
                                                  build/slipif.o
pbuf_chain                                        build/pbuf.o
                                                  build/udp.o
pbuf_clen                                         build/pbuf.o
                                                  build/ip4_frag.o
                                                  build/tcp_out.o
                                                  build/tcp_in.o
pbuf_coalesce                                     build/pbuf.o
pbuf_copy                                         build/pbuf.o
                                                  build/icmp.o
                                                  build/etharp.o
pbuf_copy_partial                                 build/pbuf.o
                                                  build/mqtt.o
                                                  build/tcp_out.o
                                                  build/sockets.o
pbuf_dechain                                      build/pbuf.o
pbuf_free                                         build/pbuf.o
                                                  build/mqtt.o
                                                  build/ip4_frag.o
                                                  build/ip4.o
                                                  build/icmp.o
                                                  build/etharp.o
                                                  build/udp.o
                                                  build/tcp_out.o
                                                  build/tcp_in.o
                                                  build/tcp.o
                                                  build/tcpip.o
                                                  build/sockets.o
                                                  build/netbuf.o
                                                  build/api_msg.o
                                                  build/slipif.o
                                                  build/ethernet.o
                                                  build/ethernetif.o
pbuf_free_callback                                build/tcpip.o
pbuf_free_ooseq_pending                           build/pbuf.o
pbuf_get_at                                       build/pbuf.o
                                                  build/mqtt.o
pbuf_header                                       build/pbuf.o
                                                  build/ip4_frag.o
                                                  build/ip4.o
                                                  build/icmp.o
                                                  build/udp.o
                                                  build/tcp_out.o
                                                  build/tcp_in.o
                                                  build/ethernet.o
pbuf_header_force                                 build/pbuf.o
                                                  build/ip4.o
                                                  build/udp.o
pbuf_memcmp                                       build/pbuf.o
pbuf_memfind                                      build/pbuf.o
pbuf_put_at                                       build/pbuf.o
pbuf_realloc                                      build/pbuf.o
                                                  build/ip4.o
                                                  build/tcp_in.o
                                                  build/slipif.o
pbuf_ref                                          build/pbuf.o
                                                  build/ip4_frag.o
                                                  build/etharp.o
                                                  build/tcp.o
pbuf_skip                                         build/pbuf.o
pbuf_strstr                                       build/pbuf.o
pbuf_take                                         build/pbuf.o
pbuf_take_at                                      build/pbuf.o
pbuf_try_get_at                                   build/pbuf.o
pcQueueGetName                                    build/queue.o
pcTaskGetName                                     build/tasks.o
                                                  build/cmsis_os2.o
pcTimerGetName                                    build/timers.o
                                                  build/cmsis_os2.o
preBUFF                                           build/main.o
                                                  build/sio.o
printf                                            c:/vsarm/armcc/10 2021.10/bin/../lib/gcc/arm-none-eabi/10.3.1/../../../../arm-none-eabi/lib/thumb/v7-m/nofp\libc_nano.a(lib_a-printf.o)
                                                  build/mqtt.o
                                                  build/ip4_frag.o
                                                  build/ip4_addr.o
                                                  build/ip4.o
                                                  build/icmp.o
                                                  build/etharp.o
                                                  build/udp.o
                                                  build/timeouts.o
                                                  build/tcp_out.o
                                                  build/tcp_in.o
                                                  build/tcp.o
                                                  build/pbuf.o
                                                  build/netif.o
                                                  build/memp.o
                                                  build/mem.o
                                                  build/inet_chksum.o
                                                  build/tcpip.o
                                                  build/sockets.o
                                                  build/netbuf.o
                                                  build/api_msg.o
                                                  build/api_lib.o
                                                  build/slipif.o
                                                  build/ethernet.o
                                                  build/ethernetif.o
                                                  build/sio.o
pvPortMalloc                                      build/heap_4.o
                                                  build/cmsis_os2.o
                                                  build/timers.o
                                                  build/tasks.o
                                                  build/stream_buffer.o
                                                  build/queue.o
                                                  build/event_groups.o
pvTaskIncrementMutexHeldCount                     build/tasks.o
                                                  build/queue.o
pvTimerGetTimerID                                 build/timers.o
                                                  build/cmsis_os2.o
pxCurrentTCB                                      build/tasks.o
                                                  build/port.o
pxPortInitialiseStack                             build/port.o
                                                  build/tasks.o
queueUART                                         build/sio.o
ram_heap                                          build/mem.o
s_xSemaphore                                      build/ethernetif.o
sio_open                                          build/sio.o
                                                  build/slipif.o
sio_read                                          build/sio.o
                                                  build/slipif.o
sio_recv                                          build/sio.o
sio_send                                          build/sio.o
                                                  build/slipif.o
sio_tryread                                       build/sio.o
                                                  build/slipif.o
sio_write                                         build/sio.o
siprintf                                          c:/vsarm/armcc/10 2021.10/bin/../lib/gcc/arm-none-eabi/10.3.1/../../../../arm-none-eabi/lib/thumb/v7-m/nofp\libc_nano.a(lib_a-sprintf.o)
slipif_init                                       build/slipif.o
                                                  build/main.o
slipif_poll                                       build/slipif.o
slipif_process_rxqueue                            build/slipif.o
slipif_received_byte                              build/slipif.o
slipif_received_bytes                             build/slipif.o
software_init_hook                                c:/vsarm/armcc/10 2021.10/bin/../lib/gcc/arm-none-eabi/10.3.1/../../../../arm-none-eabi/lib/thumb/v7-m/nofp/crt0.o
sprintf                                           c:/vsarm/armcc/10 2021.10/bin/../lib/gcc/arm-none-eabi/10.3.1/../../../../arm-none-eabi/lib/thumb/v7-m/nofp\libc_nano.a(lib_a-sprintf.o)
                                                  build/main.o
strlen                                            c:/vsarm/armcc/10 2021.10/bin/../lib/gcc/arm-none-eabi/10.3.1/../../../../arm-none-eabi/lib/thumb/v7-m/nofp\libc_nano.a(lib_a-strlen.o)
                                                  build/mqtt.o
                                                  build/pbuf.o
                                                  build/def.o
                                                  build/main.o
strncmp                                           c:/vsarm/armcc/10 2021.10/bin/../lib/gcc/arm-none-eabi/10.3.1/../../../../arm-none-eabi/lib/thumb/v7-m/nofp\libc_nano.a(lib_a-strncmp.o)
                                                  build/def.o
sys_arch_mbox_fetch                               build/sys_arch.o
                                                  build/timeouts.o
                                                  build/api_lib.o
sys_arch_mbox_tryfetch                            build/sys_arch.o
                                                  build/api_msg.o
sys_arch_protect                                  build/sys_arch.o
                                                  build/pbuf.o
                                                  build/memp.o
                                                  build/mem.o
                                                  build/sockets.o
                                                  build/api_msg.o
                                                  build/api_lib.o
                                                  build/slipif.o
sys_arch_sem_wait                                 build/sys_arch.o
                                                  build/sys.o
                                                  build/sockets.o
                                                  build/api_msg.o
sys_arch_unprotect                                build/sys_arch.o
                                                  build/pbuf.o
                                                  build/memp.o
                                                  build/mem.o
                                                  build/sockets.o
                                                  build/api_msg.o
                                                  build/api_lib.o
                                                  build/slipif.o
sys_init                                          build/sys_arch.o
                                                  build/init.o
sys_jiffies                                       build/ethernetif.o
sys_mbox_free                                     build/sys_arch.o
                                                  build/api_msg.o
                                                  build/api_lib.o
sys_mbox_new                                      build/sys_arch.o
                                                  build/tcpip.o
                                                  build/api_msg.o
sys_mbox_post                                     build/sys_arch.o
                                                  build/tcpip.o
sys_mbox_set_invalid                              build/sys_arch.o
                                                  build/api_msg.o
sys_mbox_trypost                                  build/sys_arch.o
                                                  build/tcpip.o
                                                  build/api_msg.o
sys_mbox_valid                                    build/sys_arch.o
                                                  build/tcpip.o
                                                  build/api_msg.o
                                                  build/api_lib.o
sys_msleep                                        build/sys.o
sys_mutex_free                                    build/sys_arch.o
sys_mutex_lock                                    build/sys_arch.o
                                                  build/timeouts.o
                                                  build/mem.o
                                                  build/tcpip.o
                                                  build/sockets.o
                                                  build/api_msg.o
                                                  build/ethernetif.o
sys_mutex_new                                     build/sys_arch.o
                                                  build/mem.o
                                                  build/tcpip.o
sys_mutex_unlock                                  build/sys_arch.o
                                                  build/timeouts.o
                                                  build/mem.o
                                                  build/tcpip.o
                                                  build/sockets.o
                                                  build/api_msg.o
                                                  build/ethernetif.o
sys_now                                           build/ethernetif.o
                                                  build/timeouts.o
sys_restart_timeouts                              build/timeouts.o
sys_sem_free                                      build/sys_arch.o
                                                  build/sys.o
                                                  build/sockets.o
                                                  build/api_msg.o
                                                  build/api_lib.o
sys_sem_new                                       build/sys_arch.o
                                                  build/sys.o
                                                  build/sockets.o
                                                  build/api_msg.o
sys_sem_set_invalid                               build/sys_arch.o
                                                  build/api_msg.o
sys_sem_signal                                    build/sys_arch.o
                                                  build/sockets.o
                                                  build/api_msg.o
sys_sem_valid                                     build/sys_arch.o
                                                  build/api_msg.o
                                                  build/api_lib.o
sys_thread_new                                    build/sys_arch.o
                                                  build/tcpip.o
                                                  build/slipif.o
sys_timeout                                       build/timeouts.o
                                                  build/mqtt.o
sys_timeouts_init                                 build/timeouts.o
                                                  build/init.o
sys_timeouts_mbox_fetch                           build/timeouts.o
                                                  build/tcpip.o
sys_untimeout                                     build/timeouts.o
                                                  build/mqtt.o
task_rrintErrorUart                               build/sio.o
tcp_abandon                                       build/tcp.o
                                                  build/tcp_in.o
tcp_abort                                         build/tcp.o
                                                  build/mqtt.o
                                                  build/tcp_in.o
                                                  build/api_msg.o
tcp_accept                                        build/tcp.o
                                                  build/api_msg.o
tcp_active_pcbs                                   build/tcp.o
                                                  build/timeouts.o
                                                  build/tcp_in.o
                                                  build/pbuf.o
tcp_active_pcbs_changed                           build/tcp.o
                                                  build/tcp_in.o
tcp_alloc                                         build/tcp.o
                                                  build/tcp_in.o
tcp_arg                                           build/tcp.o
                                                  build/mqtt.o
                                                  build/api_msg.o
tcp_bind                                          build/tcp.o
                                                  build/mqtt.o
                                                  build/api_msg.o
tcp_bound_pcbs                                    build/tcp.o
tcp_close                                         build/tcp.o
                                                  build/mqtt.o
                                                  build/api_msg.o
tcp_connect                                       build/tcp.o
                                                  build/mqtt.o
                                                  build/api_msg.o
tcp_debug_state_str                               build/tcp.o
tcp_eff_send_mss_impl                             build/tcp.o
                                                  build/tcp_out.o
                                                  build/tcp_in.o
tcp_enqueue_flags                                 build/tcp_out.o
                                                  build/tcp_in.o
                                                  build/tcp.o
tcp_err                                           build/tcp.o
                                                  build/mqtt.o
                                                  build/api_msg.o
tcp_fasttmr                                       build/tcp.o
tcp_init                                          build/tcp.o
                                                  build/init.o
tcp_input                                         build/tcp_in.o
                                                  build/ip4.o
tcp_input_pcb                                     build/tcp_in.o
                                                  build/tcp_out.o
                                                  build/tcp.o
tcp_keepalive                                     build/tcp_out.o
                                                  build/tcp.o
tcp_listen_pcbs                                   build/tcp.o
                                                  build/tcp_in.o
tcp_listen_with_backlog                           build/tcp.o
tcp_listen_with_backlog_and_err                   build/tcp.o
                                                  build/api_msg.o
tcp_netif_ip_addr_changed                         build/tcp.o
                                                  build/netif.o
tcp_new                                           build/tcp.o
                                                  build/mqtt.o
tcp_new_ip_type                                   build/tcp.o
                                                  build/api_msg.o
tcp_next_iss                                      build/tcp.o
                                                  build/tcp_in.o
tcp_output                                        build/tcp_out.o
                                                  build/mqtt.o
                                                  build/tcp_in.o
                                                  build/tcp.o
                                                  build/api_msg.o
tcp_pcb_lists                                     build/tcp.o
tcp_pcb_purge                                     build/tcp.o
                                                  build/tcp_in.o
tcp_pcb_remove                                    build/tcp.o
                                                  build/tcp_in.o
tcp_poll                                          build/tcp.o
                                                  build/mqtt.o
                                                  build/api_msg.o
tcp_process_refused_data                          build/tcp.o
                                                  build/tcp_in.o
tcp_recv                                          build/tcp.o
                                                  build/mqtt.o
                                                  build/api_msg.o
tcp_recv_null                                     build/tcp.o
                                                  build/tcp_in.o
tcp_recved                                        build/tcp.o
                                                  build/mqtt.o
                                                  build/api_msg.o
tcp_rexmit                                        build/tcp_out.o
                                                  build/tcp_in.o
tcp_rexmit_fast                                   build/tcp_out.o
                                                  build/tcp_in.o
tcp_rexmit_rto                                    build/tcp_out.o
                                                  build/tcp_in.o
                                                  build/tcp.o
tcp_rst                                           build/tcp_out.o
                                                  build/tcp_in.o
                                                  build/tcp.o
tcp_seg_copy                                      build/tcp.o
                                                  build/tcp_in.o
tcp_seg_free                                      build/tcp.o
                                                  build/tcp_out.o
                                                  build/tcp_in.o
tcp_segs_free                                     build/tcp.o
                                                  build/tcp_out.o
                                                  build/tcp_in.o
                                                  build/pbuf.o
tcp_send_empty_ack                                build/tcp_out.o
                                                  build/tcp_in.o
tcp_send_fin                                      build/tcp_out.o
                                                  build/tcp.o
tcp_sent                                          build/tcp.o
                                                  build/mqtt.o
                                                  build/api_msg.o
tcp_setprio                                       build/tcp.o
tcp_shutdown                                      build/tcp.o
                                                  build/api_msg.o
tcp_slowtmr                                       build/tcp.o
tcp_ticks                                         build/tcp.o
                                                  build/tcp_out.o
                                                  build/tcp_in.o
tcp_timer_needed                                  build/timeouts.o
                                                  build/tcp_in.o
                                                  build/tcp.o
tcp_tmr                                           build/tcp.o
                                                  build/timeouts.o
tcp_trigger_input_pcb_close                       build/tcp_in.o
                                                  build/tcp.o
tcp_tw_pcbs                                       build/tcp.o
                                                  build/timeouts.o
                                                  build/tcp_in.o
tcp_txnow                                         build/tcp.o
tcp_update_rcv_ann_wnd                            build/tcp.o
                                                  build/tcp_in.o
tcp_write                                         build/tcp_out.o
                                                  build/mqtt.o
                                                  build/api_msg.o
tcp_zero_window_probe                             build/tcp_out.o
                                                  build/tcp.o
tcpip_api_call                                    build/tcpip.o
tcpip_callback_with_block                         build/tcpip.o
                                                  build/pbuf.o
tcpip_callbackmsg_delete                          build/tcpip.o
tcpip_callbackmsg_new                             build/tcpip.o
tcpip_init                                        build/tcpip.o
                                                  build/lwip.o
tcpip_inpkt                                       build/tcpip.o
tcpip_input                                       build/tcpip.o
                                                  build/lwip.o
tcpip_send_msg_wait_sem                           build/tcpip.o
                                                  build/api_lib.o
tcpip_trycallback                                 build/tcpip.o
telnet_create                                     build/telnet_server.o
telnet_transmit                                   build/telnet_server.o
                                                  build/main.o
tn_admin                                          build/main.o
tn_client                                         build/main.o
tn_vadim                                          build/main.o
ucQueueGetQueueType                               build/queue.o
ucStreamBufferGetStreamBufferType                 build/stream_buffer.o
udp_bind                                          build/udp.o
                                                  build/api_msg.o
udp_connect                                       build/udp.o
                                                  build/api_msg.o
udp_disconnect                                    build/udp.o
                                                  build/api_msg.o
udp_init                                          build/udp.o
                                                  build/init.o
udp_input                                         build/udp.o
                                                  build/ip4.o
udp_netif_ip_addr_changed                         build/udp.o
                                                  build/netif.o
udp_new                                           build/udp.o
udp_new_ip_type                                   build/udp.o
                                                  build/api_msg.o
udp_pcbs                                          build/udp.o
udp_recv                                          build/udp.o
                                                  build/api_msg.o
udp_remove                                        build/udp.o
                                                  build/api_msg.o
udp_send                                          build/udp.o
                                                  build/api_msg.o
udp_sendto                                        build/udp.o
                                                  build/api_msg.o
udp_sendto_if                                     build/udp.o
udp_sendto_if_src                                 build/udp.o
ulTaskNotifyTake                                  build/tasks.o
uwTick                                            build/stm32f2xx_hal.o
uwTickFreq                                        build/stm32f2xx_hal.o
uwTickPrio                                        build/stm32f2xx_hal.o
                                                  build/stm32f2xx_hal_rcc.o
                                                  build/stm32f2xx_hal_timebase_tim.o
uxEventGroupGetNumber                             build/event_groups.o
uxListRemove                                      build/list.o
                                                  build/timers.o
                                                  build/tasks.o
uxQueueGetQueueNumber                             build/queue.o
uxQueueMessagesWaiting                            build/queue.o
                                                  build/cmsis_os2.o
uxQueueMessagesWaitingFromISR                     build/queue.o
                                                  build/cmsis_os2.o
uxQueueSpacesAvailable                            build/queue.o
                                                  build/cmsis_os2.o
uxStreamBufferGetStreamBufferNumber               build/stream_buffer.o
uxTaskGetNumberOfTasks                            build/tasks.o
                                                  build/cmsis_os2.o
uxTaskGetStackHighWaterMark                       build/tasks.o
                                                  build/cmsis_os2.o
uxTaskGetSystemState                              build/tasks.o
                                                  build/cmsis_os2.o
uxTaskGetTaskNumber                               build/tasks.o
uxTaskPriorityGet                                 build/tasks.o
                                                  build/cmsis_os2.o
uxTaskPriorityGetFromISR                          build/tasks.o
uxTaskResetEventItemValue                         build/tasks.o
                                                  build/event_groups.o
uxTimerGetTimerNumber                             build/timers.o
vApplicationGetIdleTaskMemory                     build/cmsis_os2.o
                                                  build/tasks.o
vApplicationGetTimerTaskMemory                    build/cmsis_os2.o
                                                  build/timers.o
vEventGroupClearBitsCallback                      build/event_groups.o
vEventGroupDelete                                 build/event_groups.o
                                                  build/cmsis_os2.o
vEventGroupSetBitsCallback                        build/event_groups.o
vEventGroupSetNumber                              build/event_groups.o
vListInitialise                                   build/list.o
                                                  build/timers.o
                                                  build/tasks.o
                                                  build/queue.o
                                                  build/event_groups.o
vListInitialiseItem                               build/list.o
                                                  build/timers.o
                                                  build/tasks.o
vListInsert                                       build/list.o
                                                  build/timers.o
                                                  build/tasks.o
vListInsertEnd                                    build/list.o
                                                  build/tasks.o
vPortEndScheduler                                 build/port.o
                                                  build/tasks.o
vPortEnterCritical                                build/port.o
                                                  build/timers.o
                                                  build/tasks.o
                                                  build/stream_buffer.o
                                                  build/queue.o
                                                  build/event_groups.o
vPortExitCritical                                 build/port.o
                                                  build/timers.o
                                                  build/tasks.o
                                                  build/stream_buffer.o
                                                  build/queue.o
                                                  build/event_groups.o
vPortFree                                         build/heap_4.o
                                                  build/cmsis_os2.o
                                                  build/timers.o
                                                  build/tasks.o
                                                  build/stream_buffer.o
                                                  build/queue.o
                                                  build/event_groups.o
vPortInitialiseBlocks                             build/heap_4.o
vPortSetupTimerInterrupt                          build/port.o
vPortValidateInterruptPriority                    build/port.o
                                                  build/tasks.o
                                                  build/queue.o
vQueueAddToRegistry                               build/queue.o
                                                  build/cmsis_os2.o
                                                  build/timers.o
vQueueDelete                                      build/queue.o
                                                  build/cmsis_os2.o
vQueueSetQueueNumber                              build/queue.o
vQueueUnregisterQueue                             build/queue.o
                                                  build/cmsis_os2.o
vQueueWaitForMessageRestricted                    build/queue.o
                                                  build/timers.o
vStreamBufferDelete                               build/stream_buffer.o
vStreamBufferSetStreamBufferNumber                build/stream_buffer.o
vTaskDelay                                        build/tasks.o
                                                  build/cmsis_os2.o
                                                  build/sio.o
                                                  build/telnet_server.o
vTaskDelayUntil                                   build/tasks.o
                                                  build/cmsis_os2.o
vTaskDelete                                       build/tasks.o
                                                  build/cmsis_os2.o
vTaskEndScheduler                                 build/tasks.o
vTaskGetInfo                                      build/tasks.o
vTaskInternalSetTimeOutState                      build/tasks.o
                                                  build/queue.o
vTaskMissedYield                                  build/tasks.o
                                                  build/queue.o
vTaskNotifyGiveFromISR                            build/tasks.o
vTaskPlaceOnEventList                             build/tasks.o
                                                  build/queue.o
vTaskPlaceOnEventListRestricted                   build/tasks.o
                                                  build/queue.o
vTaskPlaceOnUnorderedEventList                    build/tasks.o
                                                  build/event_groups.o
vTaskPriorityDisinheritAfterTimeout               build/tasks.o
                                                  build/queue.o
vTaskPrioritySet                                  build/tasks.o
                                                  build/cmsis_os2.o
vTaskRemoveFromUnorderedEventList                 build/tasks.o
                                                  build/event_groups.o
vTaskResume                                       build/tasks.o
                                                  build/cmsis_os2.o
vTaskSetTaskNumber                                build/tasks.o
vTaskSetTimeOutState                              build/tasks.o
                                                  build/stream_buffer.o
vTaskStartScheduler                               build/tasks.o
                                                  build/cmsis_os2.o
vTaskSuspend                                      build/tasks.o
                                                  build/cmsis_os2.o
vTaskSuspendAll                                   build/tasks.o
                                                  build/heap_4.o
                                                  build/cmsis_os2.o
                                                  build/timers.o
                                                  build/stream_buffer.o
                                                  build/queue.o
                                                  build/event_groups.o
vTaskSwitchContext                                build/tasks.o
                                                  build/port.o
vTimerSetTimerID                                  build/timers.o
vTimerSetTimerNumber                              build/timers.o
vfiprintf                                         c:/vsarm/armcc/10 2021.10/bin/../lib/gcc/arm-none-eabi/10.3.1/../../../../arm-none-eabi/lib/thumb/v7-m/nofp\libc_nano.a(lib_a-nano-vfprintf.o)
vfprintf                                          c:/vsarm/armcc/10 2021.10/bin/../lib/gcc/arm-none-eabi/10.3.1/../../../../arm-none-eabi/lib/thumb/v7-m/nofp\libc_nano.a(lib_a-nano-vfprintf.o)
wo_cmd                                            build/main.o
wo_shell                                          build/main.o
xEventGroupClearBits                              build/event_groups.o
                                                  build/cmsis_os2.o
xEventGroupClearBitsFromISR                       build/event_groups.o
                                                  build/cmsis_os2.o
xEventGroupCreate                                 build/event_groups.o
                                                  build/cmsis_os2.o
xEventGroupCreateStatic                           build/event_groups.o
                                                  build/cmsis_os2.o
xEventGroupGetBitsFromISR                         build/event_groups.o
                                                  build/cmsis_os2.o
xEventGroupSetBits                                build/event_groups.o
                                                  build/cmsis_os2.o
xEventGroupSetBitsFromISR                         build/event_groups.o
                                                  build/cmsis_os2.o
xEventGroupSync                                   build/event_groups.o
xEventGroupWaitBits                               build/event_groups.o
                                                  build/cmsis_os2.o
xPortGetFreeHeapSize                              build/heap_4.o
xPortGetMinimumEverFreeHeapSize                   build/heap_4.o
xPortStartScheduler                               build/port.o
                                                  build/tasks.o
xQueueCreateCountingSemaphore                     build/queue.o
                                                  build/cmsis_os2.o
xQueueCreateCountingSemaphoreStatic               build/queue.o
                                                  build/cmsis_os2.o
xQueueCreateMutex                                 build/queue.o
                                                  build/cmsis_os2.o
                                                  build/telnet_server.o
xQueueCreateMutexStatic                           build/queue.o
                                                  build/cmsis_os2.o
xQueueGenericCreate                               build/queue.o
                                                  build/cmsis_os2.o
                                                  build/sio.o
xQueueGenericCreateStatic                         build/queue.o
                                                  build/cmsis_os2.o
                                                  build/timers.o
xQueueGenericReset                                build/queue.o
                                                  build/cmsis_os2.o
xQueueGenericSend                                 build/queue.o
                                                  build/cmsis_os2.o
                                                  build/timers.o
                                                  build/telnet_server.o
xQueueGenericSendFromISR                          build/queue.o
                                                  build/cmsis_os2.o
                                                  build/timers.o
                                                  build/sio.o
xQueueGetMutexHolder                              build/queue.o
                                                  build/cmsis_os2.o
xQueueGetMutexHolderFromISR                       build/queue.o
xQueueGiveFromISR                                 build/queue.o
                                                  build/cmsis_os2.o
xQueueGiveMutexRecursive                          build/queue.o
                                                  build/cmsis_os2.o
xQueueIsQueueEmptyFromISR                         build/queue.o
xQueueIsQueueFullFromISR                          build/queue.o
xQueuePeek                                        build/queue.o
xQueuePeekFromISR                                 build/queue.o
xQueueReceive                                     build/queue.o
                                                  build/cmsis_os2.o
                                                  build/timers.o
                                                  build/sio.o
xQueueReceiveFromISR                              build/queue.o
                                                  build/cmsis_os2.o
xQueueRegistry                                    build/queue.o
xQueueSemaphoreTake                               build/queue.o
                                                  build/cmsis_os2.o
                                                  build/telnet_server.o
xQueueTakeMutexRecursive                          build/queue.o
                                                  build/cmsis_os2.o
xStreamBufferBytesAvailable                       build/stream_buffer.o
xStreamBufferGenericCreate                        build/stream_buffer.o
xStreamBufferGenericCreateStatic                  build/stream_buffer.o
xStreamBufferIsEmpty                              build/stream_buffer.o
xStreamBufferIsFull                               build/stream_buffer.o
xStreamBufferReceive                              build/stream_buffer.o
xStreamBufferReceiveCompletedFromISR              build/stream_buffer.o
xStreamBufferReceiveFromISR                       build/stream_buffer.o
xStreamBufferReset                                build/stream_buffer.o
xStreamBufferSend                                 build/stream_buffer.o
xStreamBufferSendCompletedFromISR                 build/stream_buffer.o
xStreamBufferSendFromISR                          build/stream_buffer.o
xStreamBufferSetTriggerLevel                      build/stream_buffer.o
xStreamBufferSpacesAvailable                      build/stream_buffer.o
xTaskCheckForTimeOut                              build/tasks.o
                                                  build/stream_buffer.o
                                                  build/queue.o
xTaskCreate                                       build/tasks.o
                                                  build/cmsis_os2.o
                                                  build/sio.o
xTaskCreateStatic                                 build/tasks.o
                                                  build/cmsis_os2.o
                                                  build/timers.o
xTaskGenericNotify                                build/tasks.o
                                                  build/cmsis_os2.o
                                                  build/stream_buffer.o
xTaskGenericNotifyFromISR                         build/tasks.o
                                                  build/cmsis_os2.o
                                                  build/stream_buffer.o
xTaskGetCurrentTaskHandle                         build/tasks.o
                                                  build/cmsis_os2.o
                                                  build/stream_buffer.o
                                                  build/queue.o
xTaskGetSchedulerState                            build/tasks.o
                                                  build/cmsis_os2.o
                                                  build/timers.o
                                                  build/queue.o
                                                  build/event_groups.o
xTaskGetTickCount                                 build/tasks.o
                                                  build/cmsis_os2.o
                                                  build/timers.o
xTaskGetTickCountFromISR                          build/tasks.o
                                                  build/cmsis_os2.o
xTaskIncrementTick                                build/tasks.o
                                                  build/port.o
xTaskNotifyStateClear                             build/tasks.o
                                                  build/stream_buffer.o
xTaskNotifyWait                                   build/tasks.o
                                                  build/cmsis_os2.o
                                                  build/stream_buffer.o
xTaskPriorityDisinherit                           build/tasks.o
                                                  build/queue.o
xTaskPriorityInherit                              build/tasks.o
                                                  build/queue.o
xTaskRemoveFromEventList                          build/tasks.o
                                                  build/queue.o
xTaskResumeAll                                    build/tasks.o
                                                  build/heap_4.o
                                                  build/cmsis_os2.o
                                                  build/timers.o
                                                  build/stream_buffer.o
                                                  build/queue.o
                                                  build/event_groups.o
xTaskResumeFromISR                                build/tasks.o
xTimerCreate                                      build/timers.o
                                                  build/cmsis_os2.o
xTimerCreateStatic                                build/timers.o
                                                  build/cmsis_os2.o
xTimerCreateTimerTask                             build/timers.o
                                                  build/tasks.o
xTimerGenericCommand                              build/timers.o
                                                  build/cmsis_os2.o
xTimerGetExpiryTime                               build/timers.o
xTimerGetPeriod                                   build/timers.o
xTimerGetTimerDaemonTaskHandle                    build/timers.o
xTimerIsTimerActive                               build/timers.o
                                                  build/cmsis_os2.o
xTimerPendFunctionCall                            build/timers.o
xTimerPendFunctionCallFromISR                     build/timers.o
                                                  build/event_groups.o
